###############################################################################
#
# IAR ELF Linker V7.50.1.10123/W32 for ARM                27/Mar/2020  17:23:05
# Copyright 2007-2015 IAR Systems AB.
#
#    Output file  =  
#        D:\chemo_pump\Src\MasterMcu\build\IAR\Release\Exe\Chemo-PumpV1_0_master.out
#    Map file     =  
#        D:\chemo_pump\Src\MasterMcu\build\IAR\Release\List\Chemo-PumpV1_0_master.map
#    Command line =  
#        D:\chemo_pump\Src\MasterMcu\build\IAR\Release\Obj\AC.o
#        D:\chemo_pump\Src\MasterMcu\build\IAR\Release\Obj\adc.o
#        D:\chemo_pump\Src\MasterMcu\build\IAR\Release\Obj\alarm.o
#        D:\chemo_pump\Src\MasterMcu\build\IAR\Release\Obj\alarm_play.o
#        D:\chemo_pump\Src\MasterMcu\build\IAR\Release\Obj\app_alarm_event_handle.o
#        D:\chemo_pump\Src\MasterMcu\build\IAR\Release\Obj\app_alternative_popup.o
#        D:\chemo_pump\Src\MasterMcu\build\IAR\Release\Obj\app_check_last_infuse.o
#        D:\chemo_pump\Src\MasterMcu\build\IAR\Release\Obj\app_cmd.o
#        D:\chemo_pump\Src\MasterMcu\build\IAR\Release\Obj\app_common.o
#        D:\chemo_pump\Src\MasterMcu\build\IAR\Release\Obj\app_delivery.o
#        D:\chemo_pump\Src\MasterMcu\build\IAR\Release\Obj\app_history_log.o
#        D:\chemo_pump\Src\MasterMcu\build\IAR\Release\Obj\app_home.o
#        D:\chemo_pump\Src\MasterMcu\build\IAR\Release\Obj\app_infusion_event_handle.o
#        D:\chemo_pump\Src\MasterMcu\build\IAR\Release\Obj\app_infusion_monitor.o
#        D:\chemo_pump\Src\MasterMcu\build\IAR\Release\Obj\app_key_event_handle.o
#        D:\chemo_pump\Src\MasterMcu\build\IAR\Release\Obj\app_main_menu.o
#        D:\chemo_pump\Src\MasterMcu\build\IAR\Release\Obj\app_mcu_comm.o
#        D:\chemo_pump\Src\MasterMcu\build\IAR\Release\Obj\app_mcu_monitor.o
#        D:\chemo_pump\Src\MasterMcu\build\IAR\Release\Obj\app_motor_monitor.o
#        D:\chemo_pump\Src\MasterMcu\build\IAR\Release\Obj\app_msg_handle.o
#        D:\chemo_pump\Src\MasterMcu\build\IAR\Release\Obj\app_operation_log.o
#        D:\chemo_pump\Src\MasterMcu\build\IAR\Release\Obj\app_popup.o
#        D:\chemo_pump\Src\MasterMcu\build\IAR\Release\Obj\app_scr_alarm.o
#        D:\chemo_pump\Src\MasterMcu\build\IAR\Release\Obj\app_scr_auto_clear_air.o
#        D:\chemo_pump\Src\MasterMcu\build\IAR\Release\Obj\app_scr_change_oled_brightness.o
#        D:\chemo_pump\Src\MasterMcu\build\IAR\Release\Obj\app_scr_change_password.o
#        D:\chemo_pump\Src\MasterMcu\build\IAR\Release\Obj\app_scr_change_voice_volume.o
#        D:\chemo_pump\Src\MasterMcu\build\IAR\Release\Obj\app_scr_event_handle.o
#        D:\chemo_pump\Src\MasterMcu\build\IAR\Release\Obj\app_scr_manual_clear_air.o
#        D:\chemo_pump\Src\MasterMcu\build\IAR\Release\Obj\app_scr_set_date.o
#        D:\chemo_pump\Src\MasterMcu\build\IAR\Release\Obj\app_scr_set_infusion_duration.o
#        D:\chemo_pump\Src\MasterMcu\build\IAR\Release\Obj\app_scr_set_infusion_speed.o
#        D:\chemo_pump\Src\MasterMcu\build\IAR\Release\Obj\app_scr_set_max_clean_tube_dose.o
#        D:\chemo_pump\Src\MasterMcu\build\IAR\Release\Obj\app_scr_set_peek_mode_duration.o
#        D:\chemo_pump\Src\MasterMcu\build\IAR\Release\Obj\app_scr_set_peek_mode_speed.o
#        D:\chemo_pump\Src\MasterMcu\build\IAR\Release\Obj\app_scr_set_time.o
#        D:\chemo_pump\Src\MasterMcu\build\IAR\Release\Obj\app_scr_set_total_dose.o
#        D:\chemo_pump\Src\MasterMcu\build\IAR\Release\Obj\app_scr_set_year.o
#        D:\chemo_pump\Src\MasterMcu\build\IAR\Release\Obj\app_scr_task_confirm.o
#        D:\chemo_pump\Src\MasterMcu\build\IAR\Release\Obj\app_select_popup.o
#        D:\chemo_pump\Src\MasterMcu\build\IAR\Release\Obj\app_set_menu.o
#        D:\chemo_pump\Src\MasterMcu\build\IAR\Release\Obj\app_sleep.o
#        D:\chemo_pump\Src\MasterMcu\build\IAR\Release\Obj\app_startup_and_post.o
#        D:\chemo_pump\Src\MasterMcu\build\IAR\Release\Obj\app_system_monitor.o
#        D:\chemo_pump\Src\MasterMcu\build\IAR\Release\Obj\battery_AC.o
#        D:\chemo_pump\Src\MasterMcu\build\IAR\Release\Obj\battery_empty.o
#        D:\chemo_pump\Src\MasterMcu\build\IAR\Release\Obj\battery_full.o
#        D:\chemo_pump\Src\MasterMcu\build\IAR\Release\Obj\battery_no.o
#        D:\chemo_pump\Src\MasterMcu\build\IAR\Release\Obj\battery_one.o
#        D:\chemo_pump\Src\MasterMcu\build\IAR\Release\Obj\battery_three.o
#        D:\chemo_pump\Src\MasterMcu\build\IAR\Release\Obj\battery_two.o
#        D:\chemo_pump\Src\MasterMcu\build\IAR\Release\Obj\clock.o
#        D:\chemo_pump\Src\MasterMcu\build\IAR\Release\Obj\com.o
#        D:\chemo_pump\Src\MasterMcu\build\IAR\Release\Obj\common.o
#        D:\chemo_pump\Src\MasterMcu\build\IAR\Release\Obj\config.o
#        D:\chemo_pump\Src\MasterMcu\build\IAR\Release\Obj\cpu_usage.o
#        D:\chemo_pump\Src\MasterMcu\build\IAR\Release\Obj\data.o
#        D:\chemo_pump\Src\MasterMcu\build\IAR\Release\Obj\dengxian_regular_14.o
#        D:\chemo_pump\Src\MasterMcu\build\IAR\Release\Obj\dev_def.o
#        D:\chemo_pump\Src\MasterMcu\build\IAR\Release\Obj\display.o
#        D:\chemo_pump\Src\MasterMcu\build\IAR\Release\Obj\do_before_main_loop.o
#        D:\chemo_pump\Src\MasterMcu\build\IAR\Release\Obj\drv_com.o
#        D:\chemo_pump\Src\MasterMcu\build\IAR\Release\Obj\drv_infusion_motor.o
#        D:\chemo_pump\Src\MasterMcu\build\IAR\Release\Obj\drv_interrupt.o
#        D:\chemo_pump\Src\MasterMcu\build\IAR\Release\Obj\drv_isd2360.o
#        D:\chemo_pump\Src\MasterMcu\build\IAR\Release\Obj\drv_key.o
#        D:\chemo_pump\Src\MasterMcu\build\IAR\Release\Obj\drv_lowpower.o
#        D:\chemo_pump\Src\MasterMcu\build\IAR\Release\Obj\drv_oled.o
#        D:\chemo_pump\Src\MasterMcu\build\IAR\Release\Obj\drv_rtc.o
#        D:\chemo_pump\Src\MasterMcu\build\IAR\Release\Obj\drv_sst25_flash.o
#        D:\chemo_pump\Src\MasterMcu\build\IAR\Release\Obj\drv_stf_motor.o
#        D:\chemo_pump\Src\MasterMcu\build\IAR\Release\Obj\dtimer.o
#        D:\chemo_pump\Src\MasterMcu\build\IAR\Release\Obj\error.o
#        D:\chemo_pump\Src\MasterMcu\build\IAR\Release\Obj\event.o
#        D:\chemo_pump\Src\MasterMcu\build\IAR\Release\Obj\exhaust.o
#        D:\chemo_pump\Src\MasterMcu\build\IAR\Release\Obj\exhaust_pause.o
#        D:\chemo_pump\Src\MasterMcu\build\IAR\Release\Obj\exhaust_run.o
#        D:\chemo_pump\Src\MasterMcu\build\IAR\Release\Obj\flush_max_dose_selected.o
#        D:\chemo_pump\Src\MasterMcu\build\IAR\Release\Obj\flush_max_dose_unselected.o
#        D:\chemo_pump\Src\MasterMcu\build\IAR\Release\Obj\font_data.o
#        D:\chemo_pump\Src\MasterMcu\build\IAR\Release\Obj\gpio.o
#        D:\chemo_pump\Src\MasterMcu\build\IAR\Release\Obj\greatest.o
#        D:\chemo_pump\Src\MasterMcu\build\IAR\Release\Obj\heiti_regular_60.o
#        D:\chemo_pump\Src\MasterMcu\build\IAR\Release\Obj\heiti_regular_88.o
#        D:\chemo_pump\Src\MasterMcu\build\IAR\Release\Obj\history_log.o
#        D:\chemo_pump\Src\MasterMcu\build\IAR\Release\Obj\image_data.o
#        D:\chemo_pump\Src\MasterMcu\build\IAR\Release\Obj\info_select.o
#        D:\chemo_pump\Src\MasterMcu\build\IAR\Release\Obj\info_unselect.o
#        D:\chemo_pump\Src\MasterMcu\build\IAR\Release\Obj\infusion_motor.o
#        D:\chemo_pump\Src\MasterMcu\build\IAR\Release\Obj\infusion_pause.o
#        D:\chemo_pump\Src\MasterMcu\build\IAR\Release\Obj\infusion_run.o
#        D:\chemo_pump\Src\MasterMcu\build\IAR\Release\Obj\infusion_stop.o
#        D:\chemo_pump\Src\MasterMcu\build\IAR\Release\Obj\init.o
#        D:\chemo_pump\Src\MasterMcu\build\IAR\Release\Obj\key.o
#        D:\chemo_pump\Src\MasterMcu\build\IAR\Release\Obj\led.o
#        D:\chemo_pump\Src\MasterMcu\build\IAR\Release\Obj\left_arrow.o
#        D:\chemo_pump\Src\MasterMcu\build\IAR\Release\Obj\lock.o
#        D:\chemo_pump\Src\MasterMcu\build\IAR\Release\Obj\logo.o
#        D:\chemo_pump\Src\MasterMcu\build\IAR\Release\Obj\main.o
#        D:\chemo_pump\Src\MasterMcu\build\IAR\Release\Obj\main_run.o
#        D:\chemo_pump\Src\MasterMcu\build\IAR\Release\Obj\mid_adc.o
#        D:\chemo_pump\Src\MasterMcu\build\IAR\Release\Obj\mid_common.o
#        D:\chemo_pump\Src\MasterMcu\build\IAR\Release\Obj\mid_rtc.o
#        D:\chemo_pump\Src\MasterMcu\build\IAR\Release\Obj\mode_selected.o
#        D:\chemo_pump\Src\MasterMcu\build\IAR\Release\Obj\mode_unselected.o
#        D:\chemo_pump\Src\MasterMcu\build\IAR\Release\Obj\msg.o
#        D:\chemo_pump\Src\MasterMcu\build\IAR\Release\Obj\mute.o
#        D:\chemo_pump\Src\MasterMcu\build\IAR\Release\Obj\mute_small.o
#        D:\chemo_pump\Src\MasterMcu\build\IAR\Release\Obj\new_task.o
#        D:\chemo_pump\Src\MasterMcu\build\IAR\Release\Obj\param.o
#        D:\chemo_pump\Src\MasterMcu\build\IAR\Release\Obj\peak_set_select.o
#        D:\chemo_pump\Src\MasterMcu\build\IAR\Release\Obj\peak_set_unselect.o
#        D:\chemo_pump\Src\MasterMcu\build\IAR\Release\Obj\pill_box_install_detect.o
#        D:\chemo_pump\Src\MasterMcu\build\IAR\Release\Obj\pressure_bubble_sensor.o
#        D:\chemo_pump\Src\MasterMcu\build\IAR\Release\Obj\read.o
#        D:\chemo_pump\Src\MasterMcu\build\IAR\Release\Obj\record_log.o
#        D:\chemo_pump\Src\MasterMcu\build\IAR\Release\Obj\record_log_text.o
#        D:\chemo_pump\Src\MasterMcu\build\IAR\Release\Obj\right_arrow.o
#        D:\chemo_pump\Src\MasterMcu\build\IAR\Release\Obj\run_all_test_suite.o
#        D:\chemo_pump\Src\MasterMcu\build\IAR\Release\Obj\run_test.o
#        D:\chemo_pump\Src\MasterMcu\build\IAR\Release\Obj\run_test_after_main.o
#        D:\chemo_pump\Src\MasterMcu\build\IAR\Release\Obj\scr_battery_calibration.o
#        D:\chemo_pump\Src\MasterMcu\build\IAR\Release\Obj\scr_clean_tube.o
#        D:\chemo_pump\Src\MasterMcu\build\IAR\Release\Obj\scr_factory_mode.o
#        D:\chemo_pump\Src\MasterMcu\build\IAR\Release\Obj\scr_layout.o
#        D:\chemo_pump\Src\MasterMcu\build\IAR\Release\Obj\scr_new_pressure_calibration.o
#        D:\chemo_pump\Src\MasterMcu\build\IAR\Release\Obj\scr_password_popup.o
#        D:\chemo_pump\Src\MasterMcu\build\IAR\Release\Obj\scr_precision_calibration.o
#        D:\chemo_pump\Src\MasterMcu\build\IAR\Release\Obj\scr_precision_factor.o
#        D:\chemo_pump\Src\MasterMcu\build\IAR\Release\Obj\scr_pressure_calibration.o
#        D:\chemo_pump\Src\MasterMcu\build\IAR\Release\Obj\scr_pressure_threshold.o
#        D:\chemo_pump\Src\MasterMcu\build\IAR\Release\Obj\scr_set_clean_tube_dose.o
#        D:\chemo_pump\Src\MasterMcu\build\IAR\Release\Obj\scr_sleep.o
#        D:\chemo_pump\Src\MasterMcu\build\IAR\Release\Obj\scr_tip_popup.o
#        D:\chemo_pump\Src\MasterMcu\build\IAR\Release\Obj\scr_unlock_tip.o
#        D:\chemo_pump\Src\MasterMcu\build\IAR\Release\Obj\screen.o
#        D:\chemo_pump\Src\MasterMcu\build\IAR\Release\Obj\select_1.o
#        D:\chemo_pump\Src\MasterMcu\build\IAR\Release\Obj\select_2.o
#        D:\chemo_pump\Src\MasterMcu\build\IAR\Release\Obj\selected_pointer.o
#        D:\chemo_pump\Src\MasterMcu\build\IAR\Release\Obj\set_arrow.o
#        D:\chemo_pump\Src\MasterMcu\build\IAR\Release\Obj\simple_alloc.o
#        D:\chemo_pump\Src\MasterMcu\build\IAR\Release\Obj\simple_alloc_config.o
#        D:\chemo_pump\Src\MasterMcu\build\IAR\Release\Obj\sound_pause.o
#        D:\chemo_pump\Src\MasterMcu\build\IAR\Release\Obj\spi.o
#        D:\chemo_pump\Src\MasterMcu\build\IAR\Release\Obj\ssz_algorithm.o
#        D:\chemo_pump\Src\MasterMcu\build\IAR\Release\Obj\ssz_block_file.o
#        D:\chemo_pump\Src\MasterMcu\build\IAR\Release\Obj\ssz_common.o
#        D:\chemo_pump\Src\MasterMcu\build\IAR\Release\Obj\ssz_config.o
#        D:\chemo_pump\Src\MasterMcu\build\IAR\Release\Obj\ssz_deque.o
#        D:\chemo_pump\Src\MasterMcu\build\IAR\Release\Obj\ssz_file.o
#        D:\chemo_pump\Src\MasterMcu\build\IAR\Release\Obj\ssz_gpio.o
#        D:\chemo_pump\Src\MasterMcu\build\IAR\Release\Obj\ssz_i2c.o
#        D:\chemo_pump\Src\MasterMcu\build\IAR\Release\Obj\ssz_list.o
#        D:\chemo_pump\Src\MasterMcu\build\IAR\Release\Obj\ssz_locale.o
#        D:\chemo_pump\Src\MasterMcu\build\IAR\Release\Obj\ssz_map.o
#        D:\chemo_pump\Src\MasterMcu\build\IAR\Release\Obj\ssz_nvram.o
#        D:\chemo_pump\Src\MasterMcu\build\IAR\Release\Obj\ssz_precision_tick_time.o
#        D:\chemo_pump\Src\MasterMcu\build\IAR\Release\Obj\ssz_queue.o
#        D:\chemo_pump\Src\MasterMcu\build\IAR\Release\Obj\ssz_record.o
#        D:\chemo_pump\Src\MasterMcu\build\IAR\Release\Obj\ssz_safe_queue.o
#        D:\chemo_pump\Src\MasterMcu\build\IAR\Release\Obj\ssz_sim_i2c.o
#        D:\chemo_pump\Src\MasterMcu\build\IAR\Release\Obj\ssz_simulator_bsp.o
#        D:\chemo_pump\Src\MasterMcu\build\IAR\Release\Obj\ssz_spi.o
#        D:\chemo_pump\Src\MasterMcu\build\IAR\Release\Obj\ssz_stack.o
#        D:\chemo_pump\Src\MasterMcu\build\IAR\Release\Obj\ssz_stm32_hal_bsp.o
#        D:\chemo_pump\Src\MasterMcu\build\IAR\Release\Obj\ssz_stop_watch.o
#        D:\chemo_pump\Src\MasterMcu\build\IAR\Release\Obj\ssz_str_utility.o
#        D:\chemo_pump\Src\MasterMcu\build\IAR\Release\Obj\ssz_tick_time.o
#        D:\chemo_pump\Src\MasterMcu\build\IAR\Release\Obj\ssz_time.o
#        D:\chemo_pump\Src\MasterMcu\build\IAR\Release\Obj\ssz_time_utility.o
#        D:\chemo_pump\Src\MasterMcu\build\IAR\Release\Obj\ssz_timer.o
#        D:\chemo_pump\Src\MasterMcu\build\IAR\Release\Obj\ssz_uart.o
#        D:\chemo_pump\Src\MasterMcu\build\IAR\Release\Obj\ssz_ui_config.o
#        D:\chemo_pump\Src\MasterMcu\build\IAR\Release\Obj\ssz_ui_view_config.o
#        D:\chemo_pump\Src\MasterMcu\build\IAR\Release\Obj\ssz_utility.o
#        D:\chemo_pump\Src\MasterMcu\build\IAR\Release\Obj\ssz_vector.o
#        D:\chemo_pump\Src\MasterMcu\build\IAR\Release\Obj\startup_stm32l152xc.o
#        D:\chemo_pump\Src\MasterMcu\build\IAR\Release\Obj\stm32l1xx_hal.o
#        D:\chemo_pump\Src\MasterMcu\build\IAR\Release\Obj\stm32l1xx_hal_adc.o
#        D:\chemo_pump\Src\MasterMcu\build\IAR\Release\Obj\stm32l1xx_hal_adc_ex.o
#        D:\chemo_pump\Src\MasterMcu\build\IAR\Release\Obj\stm32l1xx_hal_cortex.o
#        D:\chemo_pump\Src\MasterMcu\build\IAR\Release\Obj\stm32l1xx_hal_dma.o
#        D:\chemo_pump\Src\MasterMcu\build\IAR\Release\Obj\stm32l1xx_hal_flash.o
#        D:\chemo_pump\Src\MasterMcu\build\IAR\Release\Obj\stm32l1xx_hal_flash_ex.o
#        D:\chemo_pump\Src\MasterMcu\build\IAR\Release\Obj\stm32l1xx_hal_flash_ramfunc.o
#        D:\chemo_pump\Src\MasterMcu\build\IAR\Release\Obj\stm32l1xx_hal_gpio.o
#        D:\chemo_pump\Src\MasterMcu\build\IAR\Release\Obj\stm32l1xx_hal_msp.o
#        D:\chemo_pump\Src\MasterMcu\build\IAR\Release\Obj\stm32l1xx_hal_pwr.o
#        D:\chemo_pump\Src\MasterMcu\build\IAR\Release\Obj\stm32l1xx_hal_pwr_ex.o
#        D:\chemo_pump\Src\MasterMcu\build\IAR\Release\Obj\stm32l1xx_hal_rcc.o
#        D:\chemo_pump\Src\MasterMcu\build\IAR\Release\Obj\stm32l1xx_hal_rcc_ex.o
#        D:\chemo_pump\Src\MasterMcu\build\IAR\Release\Obj\stm32l1xx_hal_spi.o
#        D:\chemo_pump\Src\MasterMcu\build\IAR\Release\Obj\stm32l1xx_hal_spi_ex.o
#        D:\chemo_pump\Src\MasterMcu\build\IAR\Release\Obj\stm32l1xx_hal_tim.o
#        D:\chemo_pump\Src\MasterMcu\build\IAR\Release\Obj\stm32l1xx_hal_tim_ex.o
#        D:\chemo_pump\Src\MasterMcu\build\IAR\Release\Obj\stm32l1xx_hal_uart.o
#        D:\chemo_pump\Src\MasterMcu\build\IAR\Release\Obj\stm32l1xx_it.o
#        D:\chemo_pump\Src\MasterMcu\build\IAR\Release\Obj\stop_infusion.o
#        D:\chemo_pump\Src\MasterMcu\build\IAR\Release\Obj\stop_watch.o
#        D:\chemo_pump\Src\MasterMcu\build\IAR\Release\Obj\string_data.o
#        D:\chemo_pump\Src\MasterMcu\build\IAR\Release\Obj\sys_power.o
#        D:\chemo_pump\Src\MasterMcu\build\IAR\Release\Obj\system_setting.o
#        D:\chemo_pump\Src\MasterMcu\build\IAR\Release\Obj\system_stm32l1xx.o
#        D:\chemo_pump\Src\MasterMcu\build\IAR\Release\Obj\test_app_sleep.o
#        D:\chemo_pump\Src\MasterMcu\build\IAR\Release\Obj\test_data.o
#        D:\chemo_pump\Src\MasterMcu\build\IAR\Release\Obj\test_drv_lowpower.o
#        D:\chemo_pump\Src\MasterMcu\build\IAR\Release\Obj\test_drv_oled.o
#        D:\chemo_pump\Src\MasterMcu\build\IAR\Release\Obj\test_drv_rtc.o
#        D:\chemo_pump\Src\MasterMcu\build\IAR\Release\Obj\test_drv_sst25_flash.o
#        D:\chemo_pump\Src\MasterMcu\build\IAR\Release\Obj\test_hardware_ljl.o
#        D:\chemo_pump\Src\MasterMcu\build\IAR\Release\Obj\test_record_log.o
#        D:\chemo_pump\Src\MasterMcu\build\IAR\Release\Obj\test_ssz_algorithm.o
#        D:\chemo_pump\Src\MasterMcu\build\IAR\Release\Obj\test_ssz_str_utility.o
#        D:\chemo_pump\Src\MasterMcu\build\IAR\Release\Obj\test_ssz_time.o
#        D:\chemo_pump\Src\MasterMcu\build\IAR\Release\Obj\test_ssz_time_utility.o
#        D:\chemo_pump\Src\MasterMcu\build\IAR\Release\Obj\test_ui.o
#        D:\chemo_pump\Src\MasterMcu\build\IAR\Release\Obj\test_ui_view.o
#        D:\chemo_pump\Src\MasterMcu\build\IAR\Release\Obj\three_valve_motor.o
#        D:\chemo_pump\Src\MasterMcu\build\IAR\Release\Obj\tim.o
#        D:\chemo_pump\Src\MasterMcu\build\IAR\Release\Obj\time_select.o
#        D:\chemo_pump\Src\MasterMcu\build\IAR\Release\Obj\time_unselect.o
#        D:\chemo_pump\Src\MasterMcu\build\IAR\Release\Obj\timer.o
#        D:\chemo_pump\Src\MasterMcu\build\IAR\Release\Obj\ui_common.o
#        D:\chemo_pump\Src\MasterMcu\build\IAR\Release\Obj\ui_disp_text.o
#        D:\chemo_pump\Src\MasterMcu\build\IAR\Release\Obj\ui_draw.o
#        D:\chemo_pump\Src\MasterMcu\build\IAR\Release\Obj\ui_draw_base.o
#        D:\chemo_pump\Src\MasterMcu\build\IAR\Release\Obj\ui_draw_img.o
#        D:\chemo_pump\Src\MasterMcu\build\IAR\Release\Obj\ui_dynamic_list.o
#        D:\chemo_pump\Src\MasterMcu\build\IAR\Release\Obj\ui_image.o
#        D:\chemo_pump\Src\MasterMcu\build\IAR\Release\Obj\ui_image_list.o
#        D:\chemo_pump\Src\MasterMcu\build\IAR\Release\Obj\ui_lable.o
#        D:\chemo_pump\Src\MasterMcu\build\IAR\Release\Obj\ui_list_base.o
#        D:\chemo_pump\Src\MasterMcu\build\IAR\Release\Obj\ui_list_pos_indicator.o
#        D:\chemo_pump\Src\MasterMcu\build\IAR\Release\Obj\ui_normal_list_base.o
#        D:\chemo_pump\Src\MasterMcu\build\IAR\Release\Obj\ui_number_edit.o
#        D:\chemo_pump\Src\MasterMcu\build\IAR\Release\Obj\ui_page_control.o
#        D:\chemo_pump\Src\MasterMcu\build\IAR\Release\Obj\ui_progress_bar.o
#        D:\chemo_pump\Src\MasterMcu\build\IAR\Release\Obj\ui_statusbar.o
#        D:\chemo_pump\Src\MasterMcu\build\IAR\Release\Obj\ui_text_base.o
#        D:\chemo_pump\Src\MasterMcu\build\IAR\Release\Obj\ui_text_list.o
#        D:\chemo_pump\Src\MasterMcu\build\IAR\Release\Obj\ui_utility.o
#        D:\chemo_pump\Src\MasterMcu\build\IAR\Release\Obj\ui_view.o
#        D:\chemo_pump\Src\MasterMcu\build\IAR\Release\Obj\ui_window.o
#        D:\chemo_pump\Src\MasterMcu\build\IAR\Release\Obj\unselected_pointer.o
#        D:\chemo_pump\Src\MasterMcu\build\IAR\Release\Obj\usart.o
#        D:\chemo_pump\Src\MasterMcu\build\IAR\Release\Obj\version.o
#        D:\chemo_pump\Src\MasterMcu\build\IAR\Release\Obj\vibrater_motor.o
#        D:\chemo_pump\Src\MasterMcu\build\IAR\Release\Obj\voice.o
#        D:\chemo_pump\Src\MasterMcu\build\IAR\Release\Obj\warning.o
#        D:\chemo_pump\Src\MasterMcu\build\IAR\Release\Obj\warning_common.o
#        D:\chemo_pump\Src\MasterMcu\build\IAR\Release\Obj\write.o -o
#        D:\chemo_pump\Src\MasterMcu\build\IAR\Release\Exe\Chemo-PumpV1_0_master.out
#        --map
#        D:\chemo_pump\Src\MasterMcu\build\IAR\Release\List\Chemo-PumpV1_0_master.map
#        --config
#        D:\chemo_pump\Src\MasterMcu\build\IAR\Chemo-PumpV1_0_master.icf
#        --entry __iar_program_start --vfe
#
###############################################################################

*******************************************************************************
*** RUNTIME MODEL ATTRIBUTES
***

CppFlavor                     = *
__CPP_Language                = EC++
__Heap_Handler                = DLMalloc
__SystemLibrary               = DLib
__dlib_dynamic_initialization = normal


*******************************************************************************
*** PLACEMENT SUMMARY
***

"A1":  place at 0x08000000 { ro section .intvec };
"P1":  place in [from 0x08000000 to 0x0803ffff] { ro };
"P2":  place in [from 0x20000000 to 0x20007fff] { rw, block CSTACK, block HEAP };

  Section             Kind        Address     Size  Object
  -------             ----        -------     ----  ------
"A1":                                        0x124
  .intvec             ro code  0x08000000    0x124  startup_stm32l152xc.o [1]
                             - 0x08000124    0x124

"P1":                                      0x2f368
  .text               ro code  0x08000124   0x22a0  app_cmd.o [1]
  .text               ro code  0x080023c4     0xdc  com.o [1]
  .text               ro code  0x080024a0    0x14a  ssz_file.o [1]
  .text               ro code  0x080025ea     0x76  lz77_init_single.o [5]
  .text               ro code  0x08002660     0x44  strcpy_unaligned.o [5]
  .text               ro code  0x080026a4     0x24  printf.o [3]
  .text               ro code  0x080026c8     0x28  putchar.o [3]
  .text               ro code  0x080026f0     0x36  strlen.o [5]
  .text               ro code  0x08002726     0x1a  xsnprout.o [3]
  .text               ro code  0x08002740     0x42  strcmp_unaligned.o [5]
  .text               ro code  0x08002782      0x8  atoi.o [3]
  .text               ro code  0x0800278a      0xa  xsprout.o [3]
  .text               ro code  0x08002794    0x180  timer.o [1]
  .text               ro code  0x08002914     0x94  stop_watch.o [1]
  .text               ro code  0x080029a8     0x28  common.o [1]
  .text               ro code  0x080029d0     0x60  ssz_config.o [1]
  .text               ro code  0x08002a30    0x484  app_mcu_comm.o [1]
  .text               ro code  0x08002eb4     0x3c  version.o [1]
  .text               ro code  0x08002ef0    0x10a  ssz_tick_time.o [1]
  .rodata             const    0x08002ffa      0x2  scr_factory_mode.o [1]
  .text               ro code  0x08002ffc    0x368  ssz_time_utility.o [1]
  .text               ro code  0x08003364    0x1c4  cpu_usage.o [1]
  .text               ro code  0x08003528     0xb0  ssz_time.o [1]
  .text               ro code  0x080035d8    0x200  mid_rtc.o [1]
  .text               ro code  0x080037d8     0x76  ABImemcpy_unaligned.o [5]
  .rodata             const    0x0800384e      0x2  scr_sleep.o [1]
  .text               ro code  0x08003850    0x460  drv_rtc.o [1]
  .text               ro code  0x08003cb0    0x338  stm32l1xx_hal_gpio.o [1]
  .text               ro code  0x08003fe8    0x284  drv_stf_motor.o [1]
  .text               ro code  0x0800426c     0x58  drv_key.o [1]
  .text               ro code  0x080042c4    0x220  ssz_stm32_hal_bsp.o [1]
  .text               ro code  0x080044e4     0x98  pill_box_install_detect.o [1]
  .text               ro code  0x0800457c     0x5a  pressure_bubble_sensor.o [1]
  .text               ro code  0x080045d6      0x2  ui_page_control.o [1]
  .text               ro code  0x080045d8    0x152  sys_power.o [1]
  .rodata             const    0x0800472a      0x1  app_cmd.o [1]
  .rodata             const    0x0800472b      0x1  app_cmd.o [1]
  .text               ro code  0x0800472c    0x166  mid_adc.o [1]
  .rodata             const    0x08004892      0x1  drv_isd2360.o [1]
  .rodata             const    0x08004893      0x1  string_data.o [1]
  .text               ro code  0x08004894    0x834  data.o [1]
  .text               ro code  0x080050c8     0x70  mid_common.o [1]
  .text               ro code  0x08005138      0x6  ABImemclr4.o [5]
  .rodata             const    0x0800513e      0x1  unselected_pointer.o [1]
  .text               ro code  0x08005140     0x30  I32ToDbl.o [4]
  .text               ro code  0x08005170    0x256  DblDiv.o [4]
  .text               ro code  0x080053c8     0x58  DblToI32.o [4]
  .text               ro code  0x08005420    0x334  param.o [1]
  .text               ro code  0x08005754    0x434  record_log.o [1]
  .text               ro code  0x08005b88    0x1b6  record_log_text.o [1]
  .text               ro code  0x08005d3e    0x230  ssz_str_utility.o [1]
  .text               ro code  0x08005f70    0x560  drv_sst25_flash.o [1]
  .text               ro code  0x080064d0    0x51a  ssz_nvram.o [1]
  .text               ro code  0x080069ec    0x680  ui_draw.o [1]
  .text               ro code  0x0800706c    0x2b0  display.o [1]
  .text               ro code  0x0800731c     0xc0  ssz_common.o [1]
  .text               ro code  0x080073dc   0x15fc  app_delivery.o [1]
  .text               ro code  0x080089d8    0x70a  infusion_motor.o [1]
  .text               ro code  0x080090e4    0x82c  three_valve_motor.o [1]
  .text               ro code  0x08009910    0x320  drv_isd2360.o [1]
  .text               ro code  0x08009c30    0x59c  drv_oled.o [1]
  .text               ro code  0x0800a1cc    0x57c  app_main_menu.o [1]
  .text               ro code  0x0800a748    0x134  drv_infusion_motor.o [1]
  .text               ro code  0x0800a87c     0x4c  vibrater_motor.o [1]
  .text               ro code  0x0800a8c8    0x4bc  app_common.o [1]
  .text               ro code  0x0800ad84     0xf4  do_before_main_loop.o [1]
  .text               ro code  0x0800ae78    0x150  app_mcu_monitor.o [1]
  .text               ro code  0x0800afc8    0x784  drv_lowpower.o [1]
  .text               ro code  0x0800b74c    0x110  scr_sleep.o [1]
  .text               ro code  0x0800b85c    0x73a  screen.o [1]
  .text               ro code  0x0800bf98    0x40c  tim.o [1]
  .text               ro code  0x0800c3a4    0x6d0  stm32l1xx_hal_tim.o [1]
  .text               ro code  0x0800ca74    0x464  alarm.o [1]
  .text               ro code  0x0800ced8    0x2a8  app_system_monitor.o [1]
  .text               ro code  0x0800d180      0x8  app_cmd.o [1]
  .text               ro code  0x0800d188     0x35  puts.o [3]
  .text               ro code  0x0800d1be     0x28  strncmp.o [3]
  .text               ro code  0x0800d1e8    0xdae  xprintffull_nomb.o [3]
  .text               ro code  0x0800df96     0x34  write.o [1]
  .text               ro code  0x0800dfcc    0x19c  xstoul.o [3]
  .text               ro code  0x0800e168    0x170  ssz_stop_watch.o [1]
  .text               ro code  0x0800e2d8     0x62  memcmp_unaligned.o [5]
  .text               ro code  0x0800e33c     0x44  snprintf.o [3]
  .text               ro code  0x0800e380     0x66  ABImemset.o [5]
  .text               ro code  0x0800e3e8     0xa0  ssz_precision_tick_time.o [1]
  .text               ro code  0x0800e488    0x1a2  DblMul.o [4]
  .text               ro code  0x0800e62c     0xe8  DblAdd.o [4]
  .text               ro code  0x0800e714    0x108  msg.o [1]
  .text               ro code  0x0800e81c    0x43c  ssz_sim_i2c.o [1]
  .text               ro code  0x0800ec58     0x80  ssz_utility.o [1]
  .text               ro code  0x0800ecd8    0x254  drv_interrupt.o [1]
  .text               ro code  0x0800ef2c     0x28  ssz_gpio.o [1]
  .text               ro code  0x0800ef54    0x86c  stm32l1xx_hal_spi.o [1]
  .text               ro code  0x0800f7c0    0x7e8  stm32l1xx_hal_uart.o [1]
  .text               ro code  0x0800ffa8    0x6cc  stm32l1xx_hal_adc.o [1]
  .text               ro code  0x08010674     0xe0  main.o [1]
  .text               ro code  0x08010754    0x3ac  ssz_block_file.o [1]
  .text               ro code  0x08010b00    0x640  ssz_record.o [1]
  .text               ro code  0x08011140     0x32  ABImemset48.o [5]
  .text               ro code  0x08011174     0x90  DblToFlt.o [4]
  .text               ro code  0x08011204     0xa8  string_data.o [1]
  .text               ro code  0x080112ac     0x16  strchr.o [5]
  .text               ro code  0x080112c2      0xa  isdigit.o [3]
  .text               ro code  0x080112cc     0xb0  ssz_spi.o [1]
  .text               ro code  0x0801137c     0x38  ssz_algorithm.o [1]
  .text               ro code  0x080113b4    0x1fe  ui_utility.o [1]
  .text               ro code  0x080115b2     0x28  ssz_ui_config.o [1]
  .text               ro code  0x080115dc     0x5c  event.o [1]
  .text               ro code  0x08011638     0x44  FltToS32.o [4]
  .text               ro code  0x0801167c     0x2e  I32ToFlt.o [4]
  .text               ro code  0x080116ac     0xe6  FltSub.o [4]
  .text               ro code  0x08011794     0x84  FltAdd.o [4]
  .text               ro code  0x08011818     0x24  FltCmpGe.o [4]
  .text               ro code  0x0801183c     0x4e  FltToDbl.o [4]
  .text               ro code  0x0801188c    0x27c  spi.o [1]
  .text               ro code  0x08011b08    0x1e8  scr_clean_tube.o [1]
  .text               ro code  0x08011cf0    0x2a4  app_alternative_popup.o [1]
  .text               ro code  0x08011f94    0x368  app_scr_manual_clear_air.o [1]
  .text               ro code  0x080122fc    0x1d0  app_scr_set_total_dose.o [1]
  .text               ro code  0x080124cc    0x336  app_popup.o [1]
  .text               ro code  0x08012804    0xc92  ui_view.o [1]
  .text               ro code  0x08013498    0x514  ui_list_base.o [1]
  .text               ro code  0x080139ac    0x430  scr_password_popup.o [1]
  .text               ro code  0x08013ddc    0x410  app_set_menu.o [1]
  .text               ro code  0x080141ec    0x220  app_history_log.o [1]
  .text               ro code  0x0801440c    0x148  ui_text_list.o [1]
  .text               ro code  0x08014554     0x1c  image_data.o [1]
  .text               ro code  0x08014570    0x144  ui_image_list.o [1]
  .text               ro code  0x080146b4    0x1b0  ui_page_control.o [1]
  .text               ro code  0x08014864    0x748  key.o [1]
  .text               ro code  0x08014fac      0x4  ui_view.o [1]
  .text               ro code  0x08014fb0    0x3d4  scr_factory_mode.o [1]
  .text               ro code  0x08015384    0x2b8  ui_common.o [1]
  .text               ro code  0x0801563c    0x414  ui_statusbar.o [1]
  .text               ro code  0x08015a50    0x32a  alarm_play.o [1]
  .text               ro code  0x08015d7c    0x180  DblSub.o [4]
  .text               ro code  0x08015efc     0x44  dtimer.o [1]
  .text               ro code  0x08015f40    0x1b2  app_startup_and_post.o [1]
  .text               ro code  0x080160f4    0x520  app_home.o [1]
  .text               ro code  0x08016614    0x128  app_check_last_infuse.o [1]
  .text               ro code  0x0801673c    0x170  stm32l1xx_hal_cortex.o [1]
  .text               ro code  0x080168ac    0x120  voice.o [1]
  .text               ro code  0x080169cc    0x148  adc.o [1]
  .text               ro code  0x08016b14    0xd6c  stm32l1xx_hal_rcc.o [1]
  .text               ro code  0x08017880    0x140  system_stm32l1xx.o [1]
  .text               ro code  0x080179c0     0x68  stm32l1xx_hal.o [1]
  .text               ro code  0x08017a28     0x4c  stm32l1xx_hal_pwr.o [1]
  .text               ro code  0x08017a74     0x28  stm32l1xx_hal_pwr_ex.o [1]
  .text               ro code  0x08017a9c    0x2a8  gpio.o [1]
  .text               ro code  0x08017d44    0x26c  usart.o [1]
  .text               ro code  0x08017fb0    0x25a  drv_com.o [1]
  .text               ro code  0x0801820c    0x17c  led.o [1]
  .text               ro code  0x08018388      0x2  dev_def.o [1]
  .text               ro code  0x0801838c    0x432  ssz_list.o [1]
  .text               ro code  0x080187c0     0x6c  ui_window.o [1]
  .text               ro code  0x0801882c   0x14f0  dlmalloc.o [3]
  .text               ro code  0x08019d1c     0x58  stm32l1xx_hal_tim_ex.o [1]
  .text               ro code  0x08019d74     0x58  memchr.o [5]
  .text               ro code  0x08019dcc     0xee  I64DivMod.o [5]
  .text               ro code  0x08019eba     0x42  xdnorm.o [4]
  .text               ro code  0x08019efc     0x2e  DblCmpLe.o [4]
  .text               ro code  0x08019f2c     0x2e  DblCmpGe.o [4]
  .text               ro code  0x08019f5c    0x10c  xdscale.o [4]
  .text               ro code  0x0801a068      0xe  div.o [3]
  .text               ro code  0x0801a078      0xc  errno.o [3]
  .text               ro code  0x0801a084     0x38  ssz_queue.o [1]
  .text               ro code  0x0801a0bc    0x40c  ssz_deque.o [1]
  .text               ro code  0x0801a4c8     0xb6  main_run.o [1]
  .text               ro code  0x0801a57e     0x28  strncat.o [3]
  .text               ro code  0x0801a5a6     0x8c  stm32l1xx_hal_spi_ex.o [1]
  .text               ro code  0x0801a634    0x1bc  ui_image.o [1]
  .text               ro code  0x0801a7f0    0x102  ui_progress_bar.o [1]
  .text               ro code  0x0801a8f4     0xc0  scr_layout.o [1]
  .text               ro code  0x0801a9b4     0x78  font_data.o [1]
  .text               ro code  0x0801aa2c    0x374  ui_disp_text.o [1]
  .text               ro code  0x0801ada0     0xbc  simple_alloc.o [1]
  .text               ro code  0x0801ae5c     0x28  ui_draw_base.o [1]
  .text               ro code  0x0801ae84     0xca  ui_text_base.o [1]
  .text               ro code  0x0801af4e      0x4  scr_set_clean_tube_dose.o [1]
  .text               ro code  0x0801af54    0x264  scr_set_clean_tube_dose.o [1]
  .text               ro code  0x0801b1b8    0x2d8  ui_number_edit.o [1]
  .text               ro code  0x0801b490     0xae  ui_lable.o [1]
  .text               ro code  0x0801b53e      0xe  ui_view.o [1]
  .text               ro code  0x0801b54c      0xe  ui_view.o [1]
  .text               ro code  0x0801b55a      0x4  ui_view.o [1]
  .text               ro code  0x0801b560    0x13c  ssz_ui_view_config.o [1]
  .text               ro code  0x0801b69c     0xc6  ssz_timer.o [1]
  .text               ro code  0x0801b762     0x12  ui_view.o [1]
  .text               ro code  0x0801b774      0x4  ui_view.o [1]
  .text               ro code  0x0801b778      0x4  ui_view.o [1]
  .text               ro code  0x0801b77c    0x494  app_scr_set_time.o [1]
  .text               ro code  0x0801bc10    0x1e8  app_scr_set_max_clean_tube_dose.o [1]
  .text               ro code  0x0801bdf8    0x162  ui_list_pos_indicator.o [1]
  .text               ro code  0x0801bf5a      0x8  ui_text_list.o [1]
  .text               ro code  0x0801bf62     0xe8  ssz_vector.o [1]
  .text               ro code  0x0801c04c     0xd8  ui_draw_img.o [1]
  .text               ro code  0x0801c124    0x6b0  scr_new_pressure_calibration.o [1]
  .text               ro code  0x0801c7d4    0x460  scr_precision_calibration.o [1]
  .text               ro code  0x0801cc34    0x1e8  scr_battery_calibration.o [1]
  .text               ro code  0x0801ce1c    0x39c  app_scr_change_password.o [1]
  .text               ro code  0x0801d1b8    0x1f4  app_scr_change_oled_brightness.o [1]
  .text               ro code  0x0801d3ac    0x220  app_operation_log.o [1]
  .text               ro code  0x0801d5cc    0x1e8  scr_pressure_threshold.o [1]
  .text               ro code  0x0801d7b4    0x208  scr_precision_factor.o [1]
  .text               ro code  0x0801d9bc     0x34  sprintf.o [3]
  .text               ro code  0x0801d9f0     0xb0  stm32l1xx_hal_msp.o [1]
  .text               ro code  0x0801daa0     0xbc  ssz_safe_queue.o [1]
  .text               ro code  0x0801db5c      0x6  abort.o [3]
  .text               ro code  0x0801db64     0x2c  xgetmemchunk.o [3]
  .text               ro code  0x0801db90      0x2  I64DivZer.o [5]
  .text               ro code  0x0801db92      0x2  xtls.o [3]
  .text               ro code  0x0801db94    0x17c  init.o [1]
  .text               ro code  0x0801dd10      0x2  run_test_after_main.o [1]
  .text               ro code  0x0801dd14    0x71c  app_scr_set_infusion_duration.o [1]
  .text               ro code  0x0801e430    0x560  app_scr_set_infusion_speed.o [1]
  .text               ro code  0x0801e990      0x4  ssz_ui_view_config.o [1]
  .text               ro code  0x0801e994    0x758  app_scr_set_date.o [1]
  .text               ro code  0x0801f0ec     0x18  ui_text_list.o [1]
  .text               ro code  0x0801f104      0xc  XXexit.o [5]
  .text               ro code  0x0801f110     0x4c  simple_alloc_config.o [1]
  .text               ro code  0x0801f15c     0x1c  ssz_locale.o [1]
  .text               ro code  0x0801f178     0x20  app_motor_monitor.o [1]
  .text               ro code  0x0801f198    0x28c  app_scr_event_handle.o [1]
  .text               ro code  0x0801f424    0x114  app_key_event_handle.o [1]
  .text               ro code  0x0801f538    0x27c  app_alarm_event_handle.o [1]
  .text               ro code  0x0801f7b4    0x480  app_infusion_event_handle.o [1]
  .text               ro code  0x0801fc34    0x4d8  app_msg_handle.o [1]
  .text               ro code  0x0802010c    0xa28  app_infusion_monitor.o [1]
  .text               ro code  0x08020b34    0x29c  app_scr_set_peek_mode_duration.o [1]
  .text               ro code  0x08020dd0    0x854  app_scr_task_confirm.o [1]
  .text               ro code  0x08021624     0x24  FltCmpLe.o [4]
  .text               ro code  0x08021648     0xd8  FltMul.o [4]
  .text               ro code  0x08021720     0xfc  FltDiv.o [4]
  .text               ro code  0x0802181c    0x1b4  app_scr_set_year.o [1]
  .text               ro code  0x080219d0    0x144  scr_unlock_tip.o [1]
  .text               ro code  0x08021b14    0x24c  scr_tip_popup.o [1]
  .text               ro code  0x08021d60    0x3ec  app_scr_alarm.o [1]
  .text               ro code  0x0802214c    0x1b4  app_sleep.o [1]
  .text               ro code  0x08022300    0x3c8  app_scr_set_peek_mode_speed.o [1]
  .rodata             const    0x080226c8    0x8d8  dengxian_regular_14.o [1]
  .rodata             const    0x08022fa0    0x538  string_data.o [1]
  .rodata             const    0x080234d8    0x400  ssz_algorithm.o [1]
  .rodata             const    0x080238d8    0x318  app_cmd.o [1]
  .rodata             const    0x08023bf0    0x210  heiti_regular_88.o [1]
  .rodata             const    0x08023e00    0x210  heiti_regular_88.o [1]
  .rodata             const    0x08024010    0x210  heiti_regular_88.o [1]
  .rodata             const    0x08024220    0x210  heiti_regular_88.o [1]
  .rodata             const    0x08024430    0x210  heiti_regular_88.o [1]
  .rodata             const    0x08024640    0x210  heiti_regular_88.o [1]
  .rodata             const    0x08024850    0x210  heiti_regular_88.o [1]
  .rodata             const    0x08024a60    0x210  heiti_regular_88.o [1]
  .rodata             const    0x08024c70    0x210  heiti_regular_88.o [1]
  .rodata             const    0x08024e80    0x210  heiti_regular_88.o [1]
  .rodata             const    0x08025090    0x210  heiti_regular_88.o [1]
  .rodata             const    0x080252a0    0x210  heiti_regular_88.o [1]
  .rodata             const    0x080254b0    0x210  heiti_regular_88.o [1]
  .rodata             const    0x080256c0    0x204  image_data.o [1]
  .rodata             const    0x080258c4    0x1e0  select_1.o [1]
  .rodata             const    0x08025aa4    0x1e0  select_2.o [1]
  .rodata             const    0x08025c84    0x1c4  app_cmd.o [1]
  .rodata             const    0x08025e48    0x1c0  app_cmd.o [1]
  .rodata             const    0x08026008    0x1bc  logo.o [1]
  .rodata             const    0x080261c4    0x100  app_cmd.o [1]
  .rodata             const    0x080262c4     0xf0  heiti_regular_60.o [1]
  .rodata             const    0x080263b4     0xf0  heiti_regular_60.o [1]
  .rodata             const    0x080264a4     0xf0  heiti_regular_60.o [1]
  .rodata             const    0x08026594     0xf0  heiti_regular_60.o [1]
  .rodata             const    0x08026684     0xf0  heiti_regular_60.o [1]
  .rodata             const    0x08026774     0xf0  heiti_regular_60.o [1]
  .rodata             const    0x08026864     0xf0  heiti_regular_60.o [1]
  .rodata             const    0x08026954     0xf0  heiti_regular_60.o [1]
  .rodata             const    0x08026a44     0xf0  heiti_regular_60.o [1]
  .rodata             const    0x08026b34     0xf0  heiti_regular_60.o [1]
  .rodata             const    0x08026c24     0xf0  heiti_regular_60.o [1]
  .rodata             const    0x08026d14     0xf0  heiti_regular_60.o [1]
  .rodata             const    0x08026e04     0xf0  heiti_regular_60.o [1]
  .rodata             const    0x08026ef4     0xf0  heiti_regular_60.o [1]
  .text               ro code  0x08026fe4     0xcc  stm32l1xx_it.o [1]
  .rodata             const    0x080270b0     0xc8  flush_max_dose_selected.o [1]
  .rodata             const    0x08027178     0xc8  flush_max_dose_unselected.o [1]
  .rodata             const    0x08027240     0xc8  info_select.o [1]
  .rodata             const    0x08027308     0xc8  info_unselect.o [1]
  .rodata             const    0x080273d0     0xc8  mode_selected.o [1]
  .rodata             const    0x08027498     0xc8  mode_unselected.o [1]
  .rodata             const    0x08027560     0xc8  peak_set_select.o [1]
  .rodata             const    0x08027628     0xc8  peak_set_unselect.o [1]
  .rodata             const    0x080276f0     0xc8  time_select.o [1]
  .rodata             const    0x080277b8     0xc8  time_unselect.o [1]
  .rodata             const    0x08027880     0xc0  app_home.o [1]
  .rodata             const    0x08027940     0xb8  data.o [1]
  .rodata             const    0x080279f8     0xb8  exhaust.o [1]
  .rodata             const    0x08027ab0     0xb8  history_log.o [1]
  .rodata             const    0x08027b68     0xb8  new_task.o [1]
  .rodata             const    0x08027c20     0xb8  stop_infusion.o [1]
  .rodata             const    0x08027cd8     0xb8  system_setting.o [1]
  .rodata             const    0x08027d90     0xb4  app_scr_set_peek_mode_duration.o [1]
  .rodata             const    0x08027e44     0xb4  error.o [1]
  .rodata             const    0x08027ef8     0xb4  warning.o [1]
  .rodata             const    0x08027fac     0xb4  warning_common.o [1]
  .rodata             const    0x08028060     0xac  scr_new_pressure_calibration.o [1]
  .rodata             const    0x0802810c     0xa4  app_cmd.o [1]
  .rodata             const    0x080281b0     0xa0  ssz_ui_view_config.o [1]
  .rodata             const    0x08028250     0x98  app_cmd.o [1]
  .rodata             const    0x080282e8     0x88  app_scr_set_infusion_duration.o [1]
  .rodata             const    0x08028370     0x88  app_scr_set_infusion_speed.o [1]
  .rodata             const    0x080283f8     0x88  app_scr_set_peek_mode_speed.o [1]
  .rodata             const    0x08028480     0x84  app_cmd.o [1]
  .text               ro code  0x08028504     0x82  ui_normal_list_base.o [1]
  .rodata             const    0x08028588     0x80  data.o [1]
  .rodata             const    0x08028608     0x74  scr_battery_calibration.o [1]
  .rodata             const    0x0802867c     0x74  scr_precision_calibration.o [1]
  .rodata             const    0x080286f0     0x70  heiti_regular_60.o [1]
  .rodata             const    0x08028760     0x68  app_cmd.o [1]
  .rodata             const    0x080287c8     0x68  app_scr_task_confirm.o [1]
  .rodata             const    0x08028830     0x68  heiti_regular_88.o [1]
  .rodata             const    0x08028898     0x64  app_cmd.o [1]
  .rodata             const    0x080288fc     0x60  app_delivery.o [1]
  .rodata             const    0x0802895c     0x60  app_scr_alarm.o [1]
  .rodata             const    0x080289bc     0x58  app_cmd.o [1]
  .rodata             const    0x08028a14     0x58  app_cmd.o [1]
  .rodata             const    0x08028a6c     0x58  app_delivery.o [1]
  .rodata             const    0x08028ac4     0x58  app_main_menu.o [1]
  .rodata             const    0x08028b1c     0x58  app_scr_manual_clear_air.o [1]
  .rodata             const    0x08028b74     0x54  app_cmd.o [1]
  .rodata             const    0x08028bc8     0x54  app_scr_set_total_dose.o [1]
  .rodata             const    0x08028c1c     0x50  app_cmd.o [1]
  .rodata             const    0x08028c6c     0x50  app_delivery.o [1]
  .rodata             const    0x08028cbc     0x50  app_scr_set_date.o [1]
  .rodata             const    0x08028d0c     0x50  app_scr_set_time.o [1]
  .rodata             const    0x08028d5c     0x4c  app_cmd.o [1]
  .rodata             const    0x08028da8     0x4c  app_cmd.o [1]
  .rodata             const    0x08028df4     0x4c  app_cmd.o [1]
  .rodata             const    0x08028e40     0x4c  app_cmd.o [1]
  .rodata             const    0x08028e8c     0x48  app_cmd.o [1]
  .rodata             const    0x08028ed4     0x48  app_delivery.o [1]
  .rodata             const    0x08028f1c     0x48  app_infusion_monitor.o [1]
  .rodata             const    0x08028f64     0x48  app_popup.o [1]
  .rodata             const    0x08028fac     0x48  app_scr_change_password.o [1]
  .rodata             const    0x08028ff4     0x48  scr_password_popup.o [1]
  .rodata             const    0x0802903c     0x48  string_data.o [1]
  .rodata             const    0x08029084     0x44  app_cmd.o [1]
  .rodata             const    0x080290c8     0x44  string_data.o [1]
  .rodata             const    0x0802910c     0x44  string_data.o [1]
  .rodata             const    0x08029150     0x44  string_data.o [1]
  .rodata             const    0x08029194     0x40  app_cmd.o [1]
  .rodata             const    0x080291d4     0x40  app_cmd.o [1]
  .rodata             const    0x08029214     0x40  app_cmd.o [1]
  .rodata             const    0x08029254     0x40  app_delivery.o [1]
  .rodata             const    0x08029294     0x40  app_delivery.o [1]
  .rodata             const    0x080292d4     0x40  param.o [1]
  .rodata             const    0x08029314     0x40  string_data.o [1]
  .text               ro code  0x08029354     0x40  zero_init3.o [5]
  .rodata             const    0x08029394     0x3c  app_alternative_popup.o [1]
  .rodata             const    0x080293d0     0x3c  app_cmd.o [1]
  .rodata             const    0x0802940c     0x3c  app_cmd.o [1]
  .rodata             const    0x08029448     0x3c  app_cmd.o [1]
  .rodata             const    0x08029484     0x3c  app_cmd.o [1]
  .rodata             const    0x080294c0     0x3c  app_cmd.o [1]
  .rodata             const    0x080294fc     0x3c  app_cmd.o [1]
  .rodata             const    0x08029538     0x3c  app_cmd.o [1]
  .rodata             const    0x08029574     0x3c  app_infusion_monitor.o [1]
  .rodata             const    0x080295b0     0x3c  drv_lowpower.o [1]
  .rodata             const    0x080295ec     0x3c  string_data.o [1]
  .rodata             const    0x08029628     0x3c  three_valve_motor.o [1]
  .rodata             const    0x08029664     0x38  adc.o [1]
  .rodata             const    0x0802969c     0x38  app_cmd.o [1]
  .rodata             const    0x080296d4     0x38  app_cmd.o [1]
  .rodata             const    0x0802970c     0x38  app_delivery.o [1]
  .rodata             const    0x08029744     0x38  app_mcu_monitor.o [1]
  .rodata             const    0x0802977c     0x38  main.o [1]
  .rodata             const    0x080297b4     0x38  mid_adc.o [1]
  .rodata             const    0x080297ec     0x38  param.o [1]
  .rodata             const    0x08029824     0x38  spi.o [1]
  .rodata             const    0x0802985c     0x38  tim.o [1]
  .rodata             const    0x08029894     0x38  ui_draw.o [1]
  .rodata             const    0x080298cc     0x38  usart.o [1]
  .rodata             const    0x08029904     0x34  app_cmd.o [1]
  .rodata             const    0x08029938     0x34  app_cmd.o [1]
  .rodata             const    0x0802996c     0x34  app_cmd.o [1]
  .rodata             const    0x080299a0     0x34  app_cmd.o [1]
  .rodata             const    0x080299d4     0x34  app_cmd.o [1]
  .rodata             const    0x08029a08     0x34  app_cmd.o [1]
  .rodata             const    0x08029a3c     0x34  app_cmd.o [1]
  .rodata             const    0x08029a70     0x34  app_delivery.o [1]
  .rodata             const    0x08029aa4     0x34  app_msg_handle.o [1]
  .rodata             const    0x08029ad8     0x34  app_msg_handle.o [1]
  .rodata             const    0x08029b0c     0x34  infusion_motor.o [1]
  .rodata             const    0x08029b40     0x34  infusion_motor.o [1]
  .rodata             const    0x08029b74     0x34  param.o [1]
  .rodata             const    0x08029ba8     0x34  param.o [1]
  .rodata             const    0x08029bdc     0x34  param.o [1]
  .rodata             const    0x08029c10     0x34  string_data.o [1]
  .rodata             const    0x08029c44     0x34  three_valve_motor.o [1]
  .rodata             const    0x08029c78     0x30  app_cmd.o [1]
  .rodata             const    0x08029ca8     0x30  app_cmd.o [1]
  .rodata             const    0x08029cd8     0x30  app_cmd.o [1]
  .rodata             const    0x08029d08     0x30  app_cmd.o [1]
  .rodata             const    0x08029d38     0x30  app_common.o [1]
  .rodata             const    0x08029d68     0x30  app_infusion_monitor.o [1]
  .rodata             const    0x08029d98     0x30  app_infusion_monitor.o [1]
  .rodata             const    0x08029dc8     0x30  battery_AC.o [1]
  .rodata             const    0x08029df8     0x30  battery_empty.o [1]
  .rodata             const    0x08029e28     0x30  battery_full.o [1]
  .rodata             const    0x08029e58     0x30  battery_no.o [1]
  .rodata             const    0x08029e88     0x30  battery_one.o [1]
  .rodata             const    0x08029eb8     0x30  battery_three.o [1]
  .rodata             const    0x08029ee8     0x30  battery_two.o [1]
  .rodata             const    0x08029f18     0x30  font_data.o [1]
  .rodata             const    0x08029f48     0x30  infusion_motor.o [1]
  .rodata             const    0x08029f78     0x30  param.o [1]
  .rodata             const    0x08029fa8     0x30  param.o [1]
  .rodata             const    0x08029fd8     0x30  scr_factory_mode.o [1]
  .rodata             const    0x0802a008     0x30  scr_factory_mode.o [1]
  .rodata             const    0x0802a038     0x30  simple_alloc_config.o [1]
  .rodata             const    0x0802a068     0x30  three_valve_motor.o [1]
  .rodata             const    0x0802a098     0x2c  app_cmd.o [1]
  .rodata             const    0x0802a0c4     0x2c  app_cmd.o [1]
  .rodata             const    0x0802a0f0     0x2c  app_cmd.o [1]
  .rodata             const    0x0802a11c     0x2c  app_cmd.o [1]
  .rodata             const    0x0802a148     0x2c  app_cmd.o [1]
  .rodata             const    0x0802a174     0x2c  app_cmd.o [1]
  .rodata             const    0x0802a1a0     0x2c  app_cmd.o [1]
  .rodata             const    0x0802a1cc     0x2c  app_cmd.o [1]
  .rodata             const    0x0802a1f8     0x2c  app_cmd.o [1]
  .rodata             const    0x0802a224     0x2c  app_cmd.o [1]
  .rodata             const    0x0802a250     0x2c  param.o [1]
  .rodata             const    0x0802a27c     0x2c  param.o [1]
  .rodata             const    0x0802a2a8     0x2c  scr_tip_popup.o [1]
  .rodata             const    0x0802a2d4     0x2c  scr_unlock_tip.o [1]
  .rodata             const    0x0802a300     0x2c  screen.o [1]
  .rodata             const    0x0802a32c     0x2c  string_data.o [1]
  .rodata             const    0x0802a358     0x2c  string_data.o [1]
  .rodata             const    0x0802a384     0x2c  three_valve_motor.o [1]
  .rodata             const    0x0802a3b0     0x2c  three_valve_motor.o [1]
  .rodata             const    0x0802a3dc     0x2c  ui_image_list.o [1]
  .rodata             const    0x0802a408     0x2c  ui_list_base.o [1]
  .rodata             const    0x0802a434     0x2c  ui_normal_list_base.o [1]
  .rodata             const    0x0802a460     0x2c  ui_page_control.o [1]
  .rodata             const    0x0802a48c     0x2c  ui_text_list.o [1]
  .rodata             const    0x0802a4b8     0x28  app_cmd.o [1]
  .rodata             const    0x0802a4e0     0x28  app_cmd.o [1]
  .rodata             const    0x0802a508     0x28  app_cmd.o [1]
  .rodata             const    0x0802a530     0x28  app_cmd.o [1]
  .rodata             const    0x0802a558     0x28  app_cmd.o [1]
  .rodata             const    0x0802a580     0x28  app_cmd.o [1]
  .rodata             const    0x0802a5a8     0x28  app_cmd.o [1]
  .rodata             const    0x0802a5d0     0x28  app_cmd.o [1]
  .rodata             const    0x0802a5f8     0x28  app_cmd.o [1]
  .rodata             const    0x0802a620     0x28  app_cmd.o [1]
  .rodata             const    0x0802a648     0x28  app_cmd.o [1]
  .rodata             const    0x0802a670     0x28  app_cmd.o [1]
  .rodata             const    0x0802a698     0x28  app_cmd.o [1]
  .rodata             const    0x0802a6c0     0x28  app_cmd.o [1]
  .rodata             const    0x0802a6e8     0x28  app_cmd.o [1]
  .rodata             const    0x0802a710     0x28  app_cmd.o [1]
  .rodata             const    0x0802a738     0x28  app_cmd.o [1]
  .rodata             const    0x0802a760     0x28  app_msg_handle.o [1]
  .rodata             const    0x0802a788     0x28  drv_key.o [1]
  .rodata             const    0x0802a7b0     0x28  infusion_motor.o [1]
  .rodata             const    0x0802a7d8     0x28  infusion_motor.o [1]
  .rodata             const    0x0802a800     0x28  infusion_motor.o [1]
  .rodata             const    0x0802a828     0x28  param.o [1]
  .rodata             const    0x0802a850     0x28  param.o [1]
  .rodata             const    0x0802a878     0x28  param.o [1]
  .rodata             const    0x0802a8a0     0x28  string_data.o [1]
  .rodata             const    0x0802a8c8     0x28  string_data.o [1]
  .text               ro code  0x0802a8f0     0x28  data_init.o [5]
  .rodata             const    0x0802a918     0x24  app_cmd.o [1]
  .rodata             const    0x0802a93c     0x24  app_cmd.o [1]
  .rodata             const    0x0802a960     0x24  app_cmd.o [1]
  .rodata             const    0x0802a984     0x24  app_cmd.o [1]
  .rodata             const    0x0802a9a8     0x24  app_cmd.o [1]
  .rodata             const    0x0802a9cc     0x24  app_cmd.o [1]
  .rodata             const    0x0802a9f0     0x24  app_cmd.o [1]
  .rodata             const    0x0802aa14     0x24  app_cmd.o [1]
  .rodata             const    0x0802aa38     0x24  app_cmd.o [1]
  .rodata             const    0x0802aa5c     0x24  app_cmd.o [1]
  .rodata             const    0x0802aa80     0x24  app_cmd.o [1]
  .rodata             const    0x0802aaa4     0x24  app_cmd.o [1]
  .rodata             const    0x0802aac8     0x24  app_cmd.o [1]
  .rodata             const    0x0802aaec     0x24  app_cmd.o [1]
  .rodata             const    0x0802ab10     0x24  app_cmd.o [1]
  .rodata             const    0x0802ab34     0x24  app_cmd.o [1]
  .rodata             const    0x0802ab58     0x24  app_cmd.o [1]
  .rodata             const    0x0802ab7c     0x24  app_cmd.o [1]
  .rodata             const    0x0802aba0     0x24  app_cmd.o [1]
  .rodata             const    0x0802abc4     0x24  app_cmd.o [1]
  .rodata             const    0x0802abe8     0x24  app_cmd.o [1]
  .rodata             const    0x0802ac0c     0x24  app_cmd.o [1]
  .rodata             const    0x0802ac30     0x24  app_infusion_monitor.o [1]
  .rodata             const    0x0802ac54     0x24  app_mcu_monitor.o [1]
  .rodata             const    0x0802ac78     0x24  app_scr_set_max_clean_tube_dose.o [1]
  .rodata             const    0x0802ac9c     0x24  infusion_motor.o [1]
  .rodata             const    0x0802acc0     0x24  param.o [1]
  .rodata             const    0x0802ace4     0x24  param.o [1]
  .rodata             const    0x0802ad08     0x24  param.o [1]
  .rodata             const    0x0802ad2c     0x24  param.o [1]
  .rodata             const    0x0802ad50     0x24  param.o [1]
  .rodata             const    0x0802ad74     0x24  scr_layout.o [1]
  .rodata             const    0x0802ad98     0x24  scr_set_clean_tube_dose.o [1]
  .rodata             const    0x0802adbc     0x24  screen.o [1]
  .rodata             const    0x0802ade0     0x24  string_data.o [1]
  .rodata             const    0x0802ae04     0x24  three_valve_motor.o [1]
  .iar.init_table     const    0x0802ae28     0x20  - Linker created -
  .rodata             const    0x0802ae48     0x20  app_cmd.o [1]
  .rodata             const    0x0802ae68     0x20  app_cmd.o [1]
  .rodata             const    0x0802ae88     0x20  app_cmd.o [1]
  .rodata             const    0x0802aea8     0x20  app_cmd.o [1]
  .rodata             const    0x0802aec8     0x20  app_cmd.o [1]
  .rodata             const    0x0802aee8     0x20  app_cmd.o [1]
  .rodata             const    0x0802af08     0x20  app_cmd.o [1]
  .rodata             const    0x0802af28     0x20  app_cmd.o [1]
  .rodata             const    0x0802af48     0x20  app_cmd.o [1]
  .rodata             const    0x0802af68     0x20  app_cmd.o [1]
  .rodata             const    0x0802af88     0x20  app_cmd.o [1]
  .rodata             const    0x0802afa8     0x20  app_cmd.o [1]
  .rodata             const    0x0802afc8     0x20  app_cmd.o [1]
  .rodata             const    0x0802afe8     0x20  app_cmd.o [1]
  .rodata             const    0x0802b008     0x20  app_cmd.o [1]
  .rodata             const    0x0802b028     0x20  app_cmd.o [1]
  .rodata             const    0x0802b048     0x20  app_delivery.o [1]
  .rodata             const    0x0802b068     0x20  app_delivery.o [1]
  .rodata             const    0x0802b088     0x20  app_history_log.o [1]
  .rodata             const    0x0802b0a8     0x20  app_infusion_monitor.o [1]
  .rodata             const    0x0802b0c8     0x20  app_infusion_monitor.o [1]
  .rodata             const    0x0802b0e8     0x20  app_mcu_comm.o [1]
  .rodata             const    0x0802b108     0x20  app_operation_log.o [1]
  .rodata             const    0x0802b128     0x20  app_scr_task_confirm.o [1]
  .rodata             const    0x0802b148     0x20  app_system_monitor.o [1]
  .rodata             const    0x0802b168     0x20  cpu_usage.o [1]
  .rodata             const    0x0802b188     0x20  infusion_motor.o [1]
  .rodata             const    0x0802b1a8     0x20  infusion_pause.o [1]
  .rodata             const    0x0802b1c8     0x20  infusion_run.o [1]
  .rodata             const    0x0802b1e8     0x20  infusion_stop.o [1]
  .rodata             const    0x0802b208     0x20  mute.o [1]
  .rodata             const    0x0802b228     0x20  param.o [1]
  .rodata             const    0x0802b248     0x20  param.o [1]
  .rodata             const    0x0802b268     0x20  param.o [1]
  .rodata             const    0x0802b288     0x20  param.o [1]
  .rodata             const    0x0802b2a8     0x20  param.o [1]
  .rodata             const    0x0802b2c8     0x20  param.o [1]
  .rodata             const    0x0802b2e8     0x20  scr_new_pressure_calibration.o [1]
  .rodata             const    0x0802b308     0x20  scr_new_pressure_calibration.o [1]
  .rodata             const    0x0802b328     0x20  screen.o [1]
  .rodata             const    0x0802b348     0x20  screen.o [1]
  .rodata             const    0x0802b368     0x20  sound_pause.o [1]
  .rodata             const    0x0802b388     0x20  string_data.o [1]
  .rodata             const    0x0802b3a8     0x20  string_data.o [1]
  .rodata             const    0x0802b3c8     0x20  string_data.o [1]
  .rodata             const    0x0802b3e8     0x20  string_data.o [1]
  .rodata             const    0x0802b408     0x1c  app_cmd.o [1]
  .rodata             const    0x0802b424     0x1c  app_cmd.o [1]
  .rodata             const    0x0802b440     0x1c  app_cmd.o [1]
  .rodata             const    0x0802b45c     0x1c  app_cmd.o [1]
  .rodata             const    0x0802b478     0x1c  app_cmd.o [1]
  .rodata             const    0x0802b494     0x1c  app_cmd.o [1]
  .rodata             const    0x0802b4b0     0x1c  app_cmd.o [1]
  .rodata             const    0x0802b4cc     0x1c  app_cmd.o [1]
  .rodata             const    0x0802b4e8     0x1c  app_cmd.o [1]
  .rodata             const    0x0802b504     0x1c  app_cmd.o [1]
  .rodata             const    0x0802b520     0x1c  app_cmd.o [1]
  .rodata             const    0x0802b53c     0x1c  app_cmd.o [1]
  .rodata             const    0x0802b558     0x1c  app_cmd.o [1]
  .rodata             const    0x0802b574     0x1c  app_cmd.o [1]
  .rodata             const    0x0802b590     0x1c  app_cmd.o [1]
  .rodata             const    0x0802b5ac     0x1c  app_cmd.o [1]
  .rodata             const    0x0802b5c8     0x1c  app_mcu_comm.o [1]
  .rodata             const    0x0802b5e4     0x1c  app_scr_change_oled_brightness.o [1]
  .rodata             const    0x0802b600     0x1c  dengxian_regular_14.o [1]
  .rodata             const    0x0802b61c     0x1c  dengxian_regular_14.o [1]
  .rodata             const    0x0802b638     0x1c  dengxian_regular_14.o [1]
  .rodata             const    0x0802b654     0x1c  dengxian_regular_14.o [1]
  .rodata             const    0x0802b670     0x1c  dengxian_regular_14.o [1]
  .rodata             const    0x0802b68c     0x1c  dengxian_regular_14.o [1]
  .rodata             const    0x0802b6a8     0x1c  dengxian_regular_14.o [1]
  .rodata             const    0x0802b6c4     0x1c  dengxian_regular_14.o [1]
  .rodata             const    0x0802b6e0     0x1c  dengxian_regular_14.o [1]
  .rodata             const    0x0802b6fc     0x1c  dengxian_regular_14.o [1]
  .rodata             const    0x0802b718     0x1c  dengxian_regular_14.o [1]
  .rodata             const    0x0802b734     0x1c  dengxian_regular_14.o [1]
  .rodata             const    0x0802b750     0x1c  dengxian_regular_14.o [1]
  .rodata             const    0x0802b76c     0x1c  dengxian_regular_14.o [1]
  .rodata             const    0x0802b788     0x1c  dengxian_regular_14.o [1]
  .rodata             const    0x0802b7a4     0x1c  dengxian_regular_14.o [1]
  .rodata             const    0x0802b7c0     0x1c  dengxian_regular_14.o [1]
  .rodata             const    0x0802b7dc     0x1c  dengxian_regular_14.o [1]
  .rodata             const    0x0802b7f8     0x1c  dengxian_regular_14.o [1]
  .rodata             const    0x0802b814     0x1c  dengxian_regular_14.o [1]
  .rodata             const    0x0802b830     0x1c  dengxian_regular_14.o [1]
  .rodata             const    0x0802b84c     0x1c  dengxian_regular_14.o [1]
  .rodata             const    0x0802b868     0x1c  dengxian_regular_14.o [1]
  .rodata             const    0x0802b884     0x1c  dengxian_regular_14.o [1]
  .rodata             const    0x0802b8a0     0x1c  dengxian_regular_14.o [1]
  .rodata             const    0x0802b8bc     0x1c  dengxian_regular_14.o [1]
  .rodata             const    0x0802b8d8     0x1c  dengxian_regular_14.o [1]
  .rodata             const    0x0802b8f4     0x1c  dengxian_regular_14.o [1]
  .rodata             const    0x0802b910     0x1c  dengxian_regular_14.o [1]
  .rodata             const    0x0802b92c     0x1c  dengxian_regular_14.o [1]
  .rodata             const    0x0802b948     0x1c  dengxian_regular_14.o [1]
  .rodata             const    0x0802b964     0x1c  dengxian_regular_14.o [1]
  .rodata             const    0x0802b980     0x1c  dengxian_regular_14.o [1]
  .rodata             const    0x0802b99c     0x1c  dengxian_regular_14.o [1]
  .rodata             const    0x0802b9b8     0x1c  dengxian_regular_14.o [1]
  .rodata             const    0x0802b9d4     0x1c  dengxian_regular_14.o [1]
  .rodata             const    0x0802b9f0     0x1c  dengxian_regular_14.o [1]
  .rodata             const    0x0802ba0c     0x1c  dengxian_regular_14.o [1]
  .rodata             const    0x0802ba28     0x1c  dengxian_regular_14.o [1]
  .rodata             const    0x0802ba44     0x1c  dengxian_regular_14.o [1]
  .rodata             const    0x0802ba60     0x1c  dengxian_regular_14.o [1]
  .rodata             const    0x0802ba7c     0x1c  dengxian_regular_14.o [1]
  .rodata             const    0x0802ba98     0x1c  dengxian_regular_14.o [1]
  .rodata             const    0x0802bab4     0x1c  dengxian_regular_14.o [1]
  .rodata             const    0x0802bad0     0x1c  dengxian_regular_14.o [1]
  .rodata             const    0x0802baec     0x1c  dengxian_regular_14.o [1]
  .rodata             const    0x0802bb08     0x1c  dengxian_regular_14.o [1]
  .rodata             const    0x0802bb24     0x1c  dengxian_regular_14.o [1]
  .rodata             const    0x0802bb40     0x1c  dengxian_regular_14.o [1]
  .rodata             const    0x0802bb5c     0x1c  dengxian_regular_14.o [1]
  .rodata             const    0x0802bb78     0x1c  dengxian_regular_14.o [1]
  .rodata             const    0x0802bb94     0x1c  dengxian_regular_14.o [1]
  .rodata             const    0x0802bbb0     0x1c  dengxian_regular_14.o [1]
  .rodata             const    0x0802bbcc     0x1c  dengxian_regular_14.o [1]
  .rodata             const    0x0802bbe8     0x1c  dengxian_regular_14.o [1]
  .rodata             const    0x0802bc04     0x1c  dengxian_regular_14.o [1]
  .rodata             const    0x0802bc20     0x1c  dengxian_regular_14.o [1]
  .rodata             const    0x0802bc3c     0x1c  dengxian_regular_14.o [1]
  .rodata             const    0x0802bc58     0x1c  dengxian_regular_14.o [1]
  .rodata             const    0x0802bc74     0x1c  dengxian_regular_14.o [1]
  .rodata             const    0x0802bc90     0x1c  dengxian_regular_14.o [1]
  .rodata             const    0x0802bcac     0x1c  dengxian_regular_14.o [1]
  .rodata             const    0x0802bcc8     0x1c  dengxian_regular_14.o [1]
  .rodata             const    0x0802bce4     0x1c  dengxian_regular_14.o [1]
  .rodata             const    0x0802bd00     0x1c  dengxian_regular_14.o [1]
  .rodata             const    0x0802bd1c     0x1c  dengxian_regular_14.o [1]
  .rodata             const    0x0802bd38     0x1c  dengxian_regular_14.o [1]
  .rodata             const    0x0802bd54     0x1c  dengxian_regular_14.o [1]
  .rodata             const    0x0802bd70     0x1c  dengxian_regular_14.o [1]
  .rodata             const    0x0802bd8c     0x1c  dengxian_regular_14.o [1]
  .rodata             const    0x0802bda8     0x1c  dengxian_regular_14.o [1]
  .rodata             const    0x0802bdc4     0x1c  dengxian_regular_14.o [1]
  .rodata             const    0x0802bde0     0x1c  dengxian_regular_14.o [1]
  .rodata             const    0x0802bdfc     0x1c  dengxian_regular_14.o [1]
  .rodata             const    0x0802be18     0x1c  dengxian_regular_14.o [1]
  .rodata             const    0x0802be34     0x1c  dengxian_regular_14.o [1]
  .rodata             const    0x0802be50     0x1c  dengxian_regular_14.o [1]
  .rodata             const    0x0802be6c     0x1c  dengxian_regular_14.o [1]
  .rodata             const    0x0802be88     0x1c  dengxian_regular_14.o [1]
  .rodata             const    0x0802bea4     0x1c  dengxian_regular_14.o [1]
  .rodata             const    0x0802bec0     0x1c  dengxian_regular_14.o [1]
  .rodata             const    0x0802bedc     0x1c  dengxian_regular_14.o [1]
  .rodata             const    0x0802bef8     0x1c  dengxian_regular_14.o [1]
  .rodata             const    0x0802bf14     0x1c  dengxian_regular_14.o [1]
  .rodata             const    0x0802bf30     0x1c  dengxian_regular_14.o [1]
  .rodata             const    0x0802bf4c     0x1c  dengxian_regular_14.o [1]
  .rodata             const    0x0802bf68     0x1c  dengxian_regular_14.o [1]
  .rodata             const    0x0802bf84     0x1c  dengxian_regular_14.o [1]
  .rodata             const    0x0802bfa0     0x1c  dengxian_regular_14.o [1]
  .rodata             const    0x0802bfbc     0x1c  dengxian_regular_14.o [1]
  .rodata             const    0x0802bfd8     0x1c  dengxian_regular_14.o [1]
  .rodata             const    0x0802bff4     0x1c  dengxian_regular_14.o [1]
  .rodata             const    0x0802c010     0x1c  dengxian_regular_14.o [1]
  .rodata             const    0x0802c02c     0x1c  dengxian_regular_14.o [1]
  .rodata             const    0x0802c048     0x1c  dengxian_regular_14.o [1]
  .rodata             const    0x0802c064     0x1c  dengxian_regular_14.o [1]
  .rodata             const    0x0802c080     0x1c  dengxian_regular_14.o [1]
  .rodata             const    0x0802c09c     0x1c  dengxian_regular_14.o [1]
  .rodata             const    0x0802c0b8     0x1c  dengxian_regular_14.o [1]
  .rodata             const    0x0802c0d4     0x1c  dengxian_regular_14.o [1]
  .rodata             const    0x0802c0f0     0x1c  dengxian_regular_14.o [1]
  .rodata             const    0x0802c10c     0x1c  dengxian_regular_14.o [1]
  .rodata             const    0x0802c128     0x1c  dengxian_regular_14.o [1]
  .rodata             const    0x0802c144     0x1c  dengxian_regular_14.o [1]
  .rodata             const    0x0802c160     0x1c  dengxian_regular_14.o [1]
  .rodata             const    0x0802c17c     0x1c  dengxian_regular_14.o [1]
  .rodata             const    0x0802c198     0x1c  dengxian_regular_14.o [1]
  .rodata             const    0x0802c1b4     0x1c  dengxian_regular_14.o [1]
  .rodata             const    0x0802c1d0     0x1c  dengxian_regular_14.o [1]
  .rodata             const    0x0802c1ec     0x1c  dengxian_regular_14.o [1]
  .rodata             const    0x0802c208     0x1c  dengxian_regular_14.o [1]
  .rodata             const    0x0802c224     0x1c  dengxian_regular_14.o [1]
  .rodata             const    0x0802c240     0x1c  dengxian_regular_14.o [1]
  .rodata             const    0x0802c25c     0x1c  dengxian_regular_14.o [1]
  .rodata             const    0x0802c278     0x1c  dengxian_regular_14.o [1]
  .rodata             const    0x0802c294     0x1c  dengxian_regular_14.o [1]
  .rodata             const    0x0802c2b0     0x1c  dengxian_regular_14.o [1]
  .rodata             const    0x0802c2cc     0x1c  dengxian_regular_14.o [1]
  .rodata             const    0x0802c2e8     0x1c  dengxian_regular_14.o [1]
  .rodata             const    0x0802c304     0x1c  dengxian_regular_14.o [1]
  .rodata             const    0x0802c320     0x1c  dengxian_regular_14.o [1]
  .rodata             const    0x0802c33c     0x1c  dengxian_regular_14.o [1]
  .rodata             const    0x0802c358     0x1c  dengxian_regular_14.o [1]
  .rodata             const    0x0802c374     0x1c  dengxian_regular_14.o [1]
  .rodata             const    0x0802c390     0x1c  dengxian_regular_14.o [1]
  .rodata             const    0x0802c3ac     0x1c  dengxian_regular_14.o [1]
  .rodata             const    0x0802c3c8     0x1c  dengxian_regular_14.o [1]
  .rodata             const    0x0802c3e4     0x1c  dengxian_regular_14.o [1]
  .rodata             const    0x0802c400     0x1c  dengxian_regular_14.o [1]
  .rodata             const    0x0802c41c     0x1c  dengxian_regular_14.o [1]
  .rodata             const    0x0802c438     0x1c  dengxian_regular_14.o [1]
  .rodata             const    0x0802c454     0x1c  dengxian_regular_14.o [1]
  .rodata             const    0x0802c470     0x1c  dengxian_regular_14.o [1]
  .rodata             const    0x0802c48c     0x1c  dengxian_regular_14.o [1]
  .rodata             const    0x0802c4a8     0x1c  dengxian_regular_14.o [1]
  .rodata             const    0x0802c4c4     0x1c  dengxian_regular_14.o [1]
  .rodata             const    0x0802c4e0     0x1c  dengxian_regular_14.o [1]
  .rodata             const    0x0802c4fc     0x1c  dengxian_regular_14.o [1]
  .rodata             const    0x0802c518     0x1c  dengxian_regular_14.o [1]
  .rodata             const    0x0802c534     0x1c  dengxian_regular_14.o [1]
  .rodata             const    0x0802c550     0x1c  dengxian_regular_14.o [1]
  .rodata             const    0x0802c56c     0x1c  dengxian_regular_14.o [1]
  .rodata             const    0x0802c588     0x1c  dengxian_regular_14.o [1]
  .rodata             const    0x0802c5a4     0x1c  dengxian_regular_14.o [1]
  .rodata             const    0x0802c5c0     0x1c  dengxian_regular_14.o [1]
  .rodata             const    0x0802c5dc     0x1c  dengxian_regular_14.o [1]
  .rodata             const    0x0802c5f8     0x1c  dengxian_regular_14.o [1]
  .rodata             const    0x0802c614     0x1c  dengxian_regular_14.o [1]
  .rodata             const    0x0802c630     0x1c  dengxian_regular_14.o [1]
  .rodata             const    0x0802c64c     0x1c  dengxian_regular_14.o [1]
  .rodata             const    0x0802c668     0x1c  dengxian_regular_14.o [1]
  .rodata             const    0x0802c684     0x1c  dengxian_regular_14.o [1]
  .rodata             const    0x0802c6a0     0x1c  dengxian_regular_14.o [1]
  .rodata             const    0x0802c6bc     0x1c  dengxian_regular_14.o [1]
  .rodata             const    0x0802c6d8     0x1c  dengxian_regular_14.o [1]
  .rodata             const    0x0802c6f4     0x1c  dengxian_regular_14.o [1]
  .rodata             const    0x0802c710     0x1c  dengxian_regular_14.o [1]
  .rodata             const    0x0802c72c     0x1c  dengxian_regular_14.o [1]
  .rodata             const    0x0802c748     0x1c  dengxian_regular_14.o [1]
  .rodata             const    0x0802c764     0x1c  dengxian_regular_14.o [1]
  .rodata             const    0x0802c780     0x1c  dengxian_regular_14.o [1]
  .rodata             const    0x0802c79c     0x1c  dengxian_regular_14.o [1]
  .rodata             const    0x0802c7b8     0x1c  dengxian_regular_14.o [1]
  .rodata             const    0x0802c7d4     0x1c  dengxian_regular_14.o [1]
  .rodata             const    0x0802c7f0     0x1c  dengxian_regular_14.o [1]
  .rodata             const    0x0802c80c     0x1c  dengxian_regular_14.o [1]
  .rodata             const    0x0802c828     0x1c  dengxian_regular_14.o [1]
  .rodata             const    0x0802c844     0x1c  dengxian_regular_14.o [1]
  .rodata             const    0x0802c860     0x1c  dengxian_regular_14.o [1]
  .rodata             const    0x0802c87c     0x1c  dengxian_regular_14.o [1]
  .rodata             const    0x0802c898     0x1c  dengxian_regular_14.o [1]
  .rodata             const    0x0802c8b4     0x1c  dengxian_regular_14.o [1]
  .rodata             const    0x0802c8d0     0x1c  dengxian_regular_14.o [1]
  .rodata             const    0x0802c8ec     0x1c  dengxian_regular_14.o [1]
  .rodata             const    0x0802c908     0x1c  dengxian_regular_14.o [1]
  .rodata             const    0x0802c924     0x1c  dengxian_regular_14.o [1]
  .rodata             const    0x0802c940     0x1c  dengxian_regular_14.o [1]
  .rodata             const    0x0802c95c     0x1c  dengxian_regular_14.o [1]
  .rodata             const    0x0802c978     0x1c  dengxian_regular_14.o [1]
  .rodata             const    0x0802c994     0x1c  dengxian_regular_14.o [1]
  .rodata             const    0x0802c9b0     0x1c  dengxian_regular_14.o [1]
  .rodata             const    0x0802c9cc     0x1c  dengxian_regular_14.o [1]
  .rodata             const    0x0802c9e8     0x1c  dengxian_regular_14.o [1]
  .rodata             const    0x0802ca04     0x1c  dengxian_regular_14.o [1]
  .rodata             const    0x0802ca20     0x1c  dengxian_regular_14.o [1]
  .rodata             const    0x0802ca3c     0x1c  dengxian_regular_14.o [1]
  .rodata             const    0x0802ca58     0x1c  dengxian_regular_14.o [1]
  .rodata             const    0x0802ca74     0x1c  dengxian_regular_14.o [1]
  .rodata             const    0x0802ca90     0x1c  dengxian_regular_14.o [1]
  .rodata             const    0x0802caac     0x1c  dengxian_regular_14.o [1]
  .rodata             const    0x0802cac8     0x1c  dengxian_regular_14.o [1]
  .rodata             const    0x0802cae4     0x1c  dengxian_regular_14.o [1]
  .rodata             const    0x0802cb00     0x1c  dengxian_regular_14.o [1]
  .rodata             const    0x0802cb1c     0x1c  dengxian_regular_14.o [1]
  .rodata             const    0x0802cb38     0x1c  dengxian_regular_14.o [1]
  .rodata             const    0x0802cb54     0x1c  dengxian_regular_14.o [1]
  .rodata             const    0x0802cb70     0x1c  dengxian_regular_14.o [1]
  .rodata             const    0x0802cb8c     0x1c  dengxian_regular_14.o [1]
  .rodata             const    0x0802cba8     0x1c  dengxian_regular_14.o [1]
  .rodata             const    0x0802cbc4     0x1c  dengxian_regular_14.o [1]
  .rodata             const    0x0802cbe0     0x1c  dengxian_regular_14.o [1]
  .rodata             const    0x0802cbfc     0x1c  dengxian_regular_14.o [1]
  .rodata             const    0x0802cc18     0x1c  dengxian_regular_14.o [1]
  .rodata             const    0x0802cc34     0x1c  dengxian_regular_14.o [1]
  .rodata             const    0x0802cc50     0x1c  dengxian_regular_14.o [1]
  .rodata             const    0x0802cc6c     0x1c  dengxian_regular_14.o [1]
  .rodata             const    0x0802cc88     0x1c  dengxian_regular_14.o [1]
  .rodata             const    0x0802cca4     0x1c  dengxian_regular_14.o [1]
  .rodata             const    0x0802ccc0     0x1c  dengxian_regular_14.o [1]
  .rodata             const    0x0802ccdc     0x1c  dengxian_regular_14.o [1]
  .rodata             const    0x0802ccf8     0x1c  dengxian_regular_14.o [1]
  .rodata             const    0x0802cd14     0x1c  dengxian_regular_14.o [1]
  .rodata             const    0x0802cd30     0x1c  dengxian_regular_14.o [1]
  .rodata             const    0x0802cd4c     0x1c  dengxian_regular_14.o [1]
  .rodata             const    0x0802cd68     0x1c  dengxian_regular_14.o [1]
  .rodata             const    0x0802cd84     0x1c  dengxian_regular_14.o [1]
  .rodata             const    0x0802cda0     0x1c  dengxian_regular_14.o [1]
  .rodata             const    0x0802cdbc     0x1c  dengxian_regular_14.o [1]
  .rodata             const    0x0802cdd8     0x1c  dengxian_regular_14.o [1]
  .rodata             const    0x0802cdf4     0x1c  infusion_motor.o [1]
  .rodata             const    0x0802ce10     0x1c  param.o [1]
  .rodata             const    0x0802ce2c     0x1c  param.o [1]
  .rodata             const    0x0802ce48     0x1c  param.o [1]
  .rodata             const    0x0802ce64     0x1c  param.o [1]
  .rodata             const    0x0802ce80     0x1c  scr_factory_mode.o [1]
  .rodata             const    0x0802ce9c     0x1c  scr_layout.o [1]
  .rodata             const    0x0802ceb8     0x1c  scr_layout.o [1]
  .rodata             const    0x0802ced4     0x1c  scr_new_pressure_calibration.o [1]
  .rodata             const    0x0802cef0     0x1c  scr_new_pressure_calibration.o [1]
  .rodata             const    0x0802cf0c     0x1c  scr_new_pressure_calibration.o [1]
  .rodata             const    0x0802cf28     0x1c  screen.o [1]
  .rodata             const    0x0802cf44     0x1c  screen.o [1]
  .rodata             const    0x0802cf60     0x1c  ssz_stop_watch.o [1]
  .rodata             const    0x0802cf7c     0x1c  ssz_time.o [1]
  .rodata             const    0x0802cf98     0x1c  string_data.o [1]
  .rodata             const    0x0802cfb4     0x1c  string_data.o [1]
  .rodata             const    0x0802cfd0     0x1c  string_data.o [1]
  .rodata             const    0x0802cfec     0x1c  string_data.o [1]
  .rodata             const    0x0802d008     0x1c  string_data.o [1]
  .rodata             const    0x0802d024     0x1c  string_data.o [1]
  .rodata             const    0x0802d040     0x1c  string_data.o [1]
  .rodata             const    0x0802d05c     0x1c  string_data.o [1]
  .rodata             const    0x0802d078     0x1c  three_valve_motor.o [1]
  .rodata             const    0x0802d094     0x1c  three_valve_motor.o [1]
  .rodata             const    0x0802d0b0     0x1c  version.o [1]
  .text               ro code  0x0802d0cc     0x1a  cmain.o [5]
  .text               ro code  0x0802d0e6      0x4  low_level_init.o [3]
  .text               ro code  0x0802d0ea      0x4  exit.o [3]
  .text               ro code  0x0802d0f0      0xa  cexit.o [5]
  .rodata             const    0x0802d0fc     0x18  AC.o [1]
  .rodata             const    0x0802d114     0x18  app_cmd.o [1]
  .rodata             const    0x0802d12c     0x18  app_cmd.o [1]
  .rodata             const    0x0802d144     0x18  app_cmd.o [1]
  .rodata             const    0x0802d15c     0x18  app_cmd.o [1]
  .rodata             const    0x0802d174     0x18  app_cmd.o [1]
  .rodata             const    0x0802d18c     0x18  app_cmd.o [1]
  .rodata             const    0x0802d1a4     0x18  app_cmd.o [1]
  .rodata             const    0x0802d1bc     0x18  app_cmd.o [1]
  .rodata             const    0x0802d1d4     0x18  app_cmd.o [1]
  .rodata             const    0x0802d1ec     0x18  app_cmd.o [1]
  .rodata             const    0x0802d204     0x18  app_cmd.o [1]
  .rodata             const    0x0802d21c     0x18  app_cmd.o [1]
  .rodata             const    0x0802d234     0x18  app_cmd.o [1]
  .rodata             const    0x0802d24c     0x18  app_cmd.o [1]
  .rodata             const    0x0802d264     0x18  app_cmd.o [1]
  .rodata             const    0x0802d27c     0x18  app_cmd.o [1]
  .rodata             const    0x0802d294     0x18  app_cmd.o [1]
  .rodata             const    0x0802d2ac     0x18  app_cmd.o [1]
  .rodata             const    0x0802d2c4     0x18  app_infusion_monitor.o [1]
  .rodata             const    0x0802d2dc     0x18  app_infusion_monitor.o [1]
  .rodata             const    0x0802d2f4     0x18  app_scr_change_oled_brightness.o [1]
  .rodata             const    0x0802d30c     0x18  app_scr_change_password.o [1]
  .rodata             const    0x0802d324     0x18  app_scr_change_password.o [1]
  .rodata             const    0x0802d33c     0x18  app_scr_task_confirm.o [1]
  .rodata             const    0x0802d354     0x18  infusion_motor.o [1]
  .rodata             const    0x0802d36c     0x18  infusion_motor.o [1]
  .rodata             const    0x0802d384     0x18  param.o [1]
  .rodata             const    0x0802d39c     0x18  param.o [1]
  .rodata             const    0x0802d3b4     0x18  param.o [1]
  .rodata             const    0x0802d3cc     0x18  scr_new_pressure_calibration.o [1]
  .rodata             const    0x0802d3e4     0x18  scr_precision_calibration.o [1]
  .rodata             const    0x0802d3fc     0x18  screen.o [1]
  .rodata             const    0x0802d414     0x18  ssz_stop_watch.o [1]
  .rodata             const    0x0802d42c     0x18  string_data.o [1]
  .rodata             const    0x0802d444     0x18  string_data.o [1]
  .rodata             const    0x0802d45c     0x18  string_data.o [1]
  .rodata             const    0x0802d474     0x18  string_data.o [1]
  .rodata             const    0x0802d48c     0x18  string_data.o [1]
  .rodata             const    0x0802d4a4     0x18  string_data.o [1]
  .rodata             const    0x0802d4bc     0x18  string_data.o [1]
  .rodata             const    0x0802d4d4     0x18  string_data.o [1]
  .rodata             const    0x0802d4ec     0x18  string_data.o [1]
  .rodata             const    0x0802d504     0x18  string_data.o [1]
  .rodata             const    0x0802d51c     0x18  three_valve_motor.o [1]
  .rodata             const    0x0802d534     0x18  ui_image.o [1]
  .rodata             const    0x0802d54c     0x18  ui_lable.o [1]
  .rodata             const    0x0802d564     0x18  ui_list_pos_indicator.o [1]
  .rodata             const    0x0802d57c     0x18  ui_number_edit.o [1]
  .rodata             const    0x0802d594     0x18  ui_progress_bar.o [1]
  .rodata             const    0x0802d5ac     0x18  ui_statusbar.o [1]
  .rodata             const    0x0802d5c4     0x18  ui_text_base.o [1]
  .rodata             const    0x0802d5dc     0x18  ui_view.o [1]
  .rodata             const    0x0802d5f4     0x18  ui_view.o [1]
  .rodata             const    0x0802d60c     0x18  ui_window.o [1]
  .rodata             const    0x0802d624     0x18  version.o [1]
  .rodata             const    0x0802d63c     0x18  version.o [1]
  .text               ro code  0x0802d654     0x16  xprout.o [3]
  .rodata             const    0x0802d66c     0x14  app_cmd.o [1]
  .rodata             const    0x0802d680     0x14  app_cmd.o [1]
  .rodata             const    0x0802d694     0x14  app_cmd.o [1]
  .rodata             const    0x0802d6a8     0x14  app_cmd.o [1]
  .rodata             const    0x0802d6bc     0x14  app_cmd.o [1]
  .rodata             const    0x0802d6d0     0x14  app_cmd.o [1]
  .rodata             const    0x0802d6e4     0x14  app_cmd.o [1]
  .rodata             const    0x0802d6f8     0x14  app_cmd.o [1]
  .rodata             const    0x0802d70c     0x14  app_cmd.o [1]
  .rodata             const    0x0802d720     0x14  app_cmd.o [1]
  .rodata             const    0x0802d734     0x14  app_cmd.o [1]
  .rodata             const    0x0802d748     0x14  app_cmd.o [1]
  .rodata             const    0x0802d75c     0x14  app_cmd.o [1]
  .rodata             const    0x0802d770     0x14  app_cmd.o [1]
  .rodata             const    0x0802d784     0x14  app_cmd.o [1]
  .rodata             const    0x0802d798     0x14  app_cmd.o [1]
  .rodata             const    0x0802d7ac     0x14  app_cmd.o [1]
  .rodata             const    0x0802d7c0     0x14  app_cmd.o [1]
  .rodata             const    0x0802d7d4     0x14  app_cmd.o [1]
  .rodata             const    0x0802d7e8     0x14  app_cmd.o [1]
  .rodata             const    0x0802d7fc     0x14  app_cmd.o [1]
  .rodata             const    0x0802d810     0x14  app_cmd.o [1]
  .rodata             const    0x0802d824     0x14  app_cmd.o [1]
  .rodata             const    0x0802d838     0x14  app_cmd.o [1]
  .rodata             const    0x0802d84c     0x14  app_cmd.o [1]
  .rodata             const    0x0802d860     0x14  app_cmd.o [1]
  .rodata             const    0x0802d874     0x14  app_cmd.o [1]
  .rodata             const    0x0802d888     0x14  app_cmd.o [1]
  .rodata             const    0x0802d89c     0x14  app_cmd.o [1]
  .rodata             const    0x0802d8b0     0x14  app_cmd.o [1]
  .rodata             const    0x0802d8c4     0x14  app_cmd.o [1]
  .rodata             const    0x0802d8d8     0x14  app_cmd.o [1]
  .rodata             const    0x0802d8ec     0x14  app_cmd.o [1]
  .rodata             const    0x0802d900     0x14  app_cmd.o [1]
  .rodata             const    0x0802d914     0x14  app_cmd.o [1]
  .rodata             const    0x0802d928     0x14  app_cmd.o [1]
  .rodata             const    0x0802d93c     0x14  app_delivery.o [1]
  .rodata             const    0x0802d950     0x14  app_infusion_monitor.o [1]
  .rodata             const    0x0802d964     0x14  app_infusion_monitor.o [1]
  .rodata             const    0x0802d978     0x14  app_infusion_monitor.o [1]
  .rodata             const    0x0802d98c     0x14  app_infusion_monitor.o [1]
  .rodata             const    0x0802d9a0     0x14  app_mcu_comm.o [1]
  .rodata             const    0x0802d9b4     0x14  app_mcu_comm.o [1]
  .rodata             const    0x0802d9c8     0x14  app_mcu_comm.o [1]
  .rodata             const    0x0802d9dc     0x14  app_mcu_comm.o [1]
  .rodata             const    0x0802d9f0     0x14  app_mcu_comm.o [1]
  .rodata             const    0x0802da04     0x14  app_msg_handle.o [1]
  .rodata             const    0x0802da18     0x14  app_scr_change_oled_brightness.o [1]
  .rodata             const    0x0802da2c     0x14  app_scr_set_year.o [1]
  .rodata             const    0x0802da40     0x14  app_scr_task_confirm.o [1]
  .rodata             const    0x0802da54     0x14  app_set_menu.o [1]
  .rodata             const    0x0802da68     0x14  common.o [1]
  .rodata             const    0x0802da7c     0x14  data.o [1]
  .rodata             const    0x0802da90     0x14  data.o [1]
  .rodata             const    0x0802daa4     0x14  mute_small.o [1]
  .rodata             const    0x0802dab8     0x14  param.o [1]
  .rodata             const    0x0802dacc     0x14  param.o [1]
  .rodata             const    0x0802dae0     0x14  scr_precision_factor.o [1]
  .rodata             const    0x0802daf4     0x14  scr_pressure_threshold.o [1]
  .rodata             const    0x0802db08     0x14  string_data.o [1]
  .rodata             const    0x0802db1c     0x14  string_data.o [1]
  .rodata             const    0x0802db30     0x14  string_data.o [1]
  .rodata             const    0x0802db44     0x14  string_data.o [1]
  .rodata             const    0x0802db58     0x14  string_data.o [1]
  .rodata             const    0x0802db6c     0x14  string_data.o [1]
  .rodata             const    0x0802db80     0x14  string_data.o [1]
  .rodata             const    0x0802db94     0x14  string_data.o [1]
  .rodata             const    0x0802dba8     0x14  string_data.o [1]
  .rodata             const    0x0802dbbc     0x14  string_data.o [1]
  .rodata             const    0x0802dbd0     0x14  string_data.o [1]
  .rodata             const    0x0802dbe4     0x14  string_data.o [1]
  .rodata             const    0x0802dbf8     0x14  string_data.o [1]
  .rodata             const    0x0802dc0c     0x14  string_data.o [1]
  .rodata             const    0x0802dc20     0x14  string_data.o [1]
  .rodata             const    0x0802dc34     0x14  string_data.o [1]
  .rodata             const    0x0802dc48     0x14  string_data.o [1]
  .rodata             const    0x0802dc5c     0x14  string_data.o [1]
  .rodata             const    0x0802dc70     0x14  string_data.o [1]
  .rodata             const    0x0802dc84     0x14  string_data.o [1]
  .rodata             const    0x0802dc98     0x14  string_data.o [1]
  .rodata             const    0x0802dcac     0x14  string_data.o [1]
  .rodata             const    0x0802dcc0     0x14  string_data.o [1]
  .rodata             const    0x0802dcd4     0x14  string_data.o [1]
  .rodata             const    0x0802dce8     0x14  string_data.o [1]
  .rodata             const    0x0802dcfc     0x14  string_data.o [1]
  .rodata             const    0x0802dd10     0x14  string_data.o [1]
  .rodata             const    0x0802dd24     0x14  string_data.o [1]
  .rodata             const    0x0802dd38     0x14  string_data.o [1]
  .rodata             const    0x0802dd4c     0x14  string_data.o [1]
  .rodata             const    0x0802dd60     0x14  string_data.o [1]
  .rodata             const    0x0802dd74     0x14  string_data.o [1]
  .rodata             const    0x0802dd88     0x14  string_data.o [1]
  .rodata             const    0x0802dd9c     0x14  string_data.o [1]
  .rodata             const    0x0802ddb0     0x14  string_data.o [1]
  .rodata             const    0x0802ddc4     0x10  alarm.o [1]
  .rodata             const    0x0802ddd4     0x10  alarm.o [1]
  .rodata             const    0x0802dde4     0x10  app_cmd.o [1]
  .rodata             const    0x0802ddf4     0x10  app_cmd.o [1]
  .rodata             const    0x0802de04     0x10  app_cmd.o [1]
  .rodata             const    0x0802de14     0x10  app_cmd.o [1]
  .rodata             const    0x0802de24     0x10  app_cmd.o [1]
  .rodata             const    0x0802de34     0x10  app_cmd.o [1]
  .rodata             const    0x0802de44     0x10  app_cmd.o [1]
  .rodata             const    0x0802de54     0x10  app_cmd.o [1]
  .rodata             const    0x0802de64     0x10  app_cmd.o [1]
  .rodata             const    0x0802de74     0x10  app_cmd.o [1]
  .rodata             const    0x0802de84     0x10  app_cmd.o [1]
  .rodata             const    0x0802de94     0x10  app_cmd.o [1]
  .rodata             const    0x0802dea4     0x10  app_cmd.o [1]
  .rodata             const    0x0802deb4     0x10  app_cmd.o [1]
  .rodata             const    0x0802dec4     0x10  app_cmd.o [1]
  .rodata             const    0x0802ded4     0x10  app_cmd.o [1]
  .rodata             const    0x0802dee4     0x10  app_cmd.o [1]
  .rodata             const    0x0802def4     0x10  app_cmd.o [1]
  .rodata             const    0x0802df04     0x10  app_cmd.o [1]
  .rodata             const    0x0802df14     0x10  app_cmd.o [1]
  .rodata             const    0x0802df24     0x10  app_cmd.o [1]
  .rodata             const    0x0802df34     0x10  app_cmd.o [1]
  .rodata             const    0x0802df44     0x10  app_cmd.o [1]
  .rodata             const    0x0802df54     0x10  app_cmd.o [1]
  .rodata             const    0x0802df64     0x10  app_cmd.o [1]
  .rodata             const    0x0802df74     0x10  app_cmd.o [1]
  .rodata             const    0x0802df84     0x10  app_cmd.o [1]
  .rodata             const    0x0802df94     0x10  app_cmd.o [1]
  .rodata             const    0x0802dfa4     0x10  app_cmd.o [1]
  .rodata             const    0x0802dfb4     0x10  app_cmd.o [1]
  .rodata             const    0x0802dfc4     0x10  app_cmd.o [1]
  .rodata             const    0x0802dfd4     0x10  app_cmd.o [1]
  .rodata             const    0x0802dfe4     0x10  app_cmd.o [1]
  .rodata             const    0x0802dff4     0x10  app_cmd.o [1]
  .rodata             const    0x0802e004     0x10  app_cmd.o [1]
  .rodata             const    0x0802e014     0x10  app_cmd.o [1]
  .rodata             const    0x0802e024     0x10  app_cmd.o [1]
  .rodata             const    0x0802e034     0x10  app_cmd.o [1]
  .rodata             const    0x0802e044     0x10  app_cmd.o [1]
  .rodata             const    0x0802e054     0x10  app_cmd.o [1]
  .rodata             const    0x0802e064     0x10  app_cmd.o [1]
  .rodata             const    0x0802e074     0x10  app_cmd.o [1]
  .rodata             const    0x0802e084     0x10  app_cmd.o [1]
  .rodata             const    0x0802e094     0x10  app_cmd.o [1]
  .rodata             const    0x0802e0a4     0x10  app_cmd.o [1]
  .rodata             const    0x0802e0b4     0x10  app_cmd.o [1]
  .rodata             const    0x0802e0c4     0x10  app_cmd.o [1]
  .rodata             const    0x0802e0d4     0x10  app_cmd.o [1]
  .rodata             const    0x0802e0e4     0x10  app_cmd.o [1]
  .rodata             const    0x0802e0f4     0x10  app_cmd.o [1]
  .rodata             const    0x0802e104     0x10  app_cmd.o [1]
  .rodata             const    0x0802e114     0x10  app_cmd.o [1]
  .rodata             const    0x0802e124     0x10  app_cmd.o [1]
  .rodata             const    0x0802e134     0x10  app_cmd.o [1]
  .rodata             const    0x0802e144     0x10  app_cmd.o [1]
  .rodata             const    0x0802e154     0x10  app_cmd.o [1]
  .rodata             const    0x0802e164     0x10  app_cmd.o [1]
  .rodata             const    0x0802e174     0x10  app_history_log.o [1]
  .rodata             const    0x0802e184     0x10  app_infusion_monitor.o [1]
  .rodata             const    0x0802e194     0x10  app_mcu_comm.o [1]
  .rodata             const    0x0802e1a4     0x10  app_mcu_comm.o [1]
  .rodata             const    0x0802e1b4     0x10  app_msg_handle.o [1]
  .rodata             const    0x0802e1c4     0x10  app_operation_log.o [1]
  .rodata             const    0x0802e1d4     0x10  app_popup.o [1]
  .rodata             const    0x0802e1e4     0x10  app_scr_set_peek_mode_speed.o [1]
  .rodata             const    0x0802e1f4     0x10  app_set_menu.o [1]
  .rodata             const    0x0802e204     0x10  app_set_menu.o [1]
  .rodata             const    0x0802e214     0x10  app_set_menu.o [1]
  .rodata             const    0x0802e224     0x10  common.o [1]
  .rodata             const    0x0802e234     0x10  cpu_usage.o [1]
  .rodata             const    0x0802e244     0x10  dengxian_regular_14.o [1]
  .rodata             const    0x0802e254     0x10  dengxian_regular_14.o [1]
  .rodata             const    0x0802e264     0x10  dengxian_regular_14.o [1]
  .rodata             const    0x0802e274     0x10  dengxian_regular_14.o [1]
  .rodata             const    0x0802e284     0x10  dengxian_regular_14.o [1]
  .rodata             const    0x0802e294     0x10  dengxian_regular_14.o [1]
  .rodata             const    0x0802e2a4     0x10  dengxian_regular_14.o [1]
  .rodata             const    0x0802e2b4     0x10  dengxian_regular_14.o [1]
  .rodata             const    0x0802e2c4     0x10  dengxian_regular_14.o [1]
  .rodata             const    0x0802e2d4     0x10  dengxian_regular_14.o [1]
  .rodata             const    0x0802e2e4     0x10  dengxian_regular_14.o [1]
  .rodata             const    0x0802e2f4     0x10  dengxian_regular_14.o [1]
  .rodata             const    0x0802e304     0x10  dengxian_regular_14.o [1]
  .rodata             const    0x0802e314     0x10  dengxian_regular_14.o [1]
  .rodata             const    0x0802e324     0x10  dengxian_regular_14.o [1]
  .rodata             const    0x0802e334     0x10  dengxian_regular_14.o [1]
  .rodata             const    0x0802e344     0x10  dengxian_regular_14.o [1]
  .rodata             const    0x0802e354     0x10  dengxian_regular_14.o [1]
  .rodata             const    0x0802e364     0x10  dengxian_regular_14.o [1]
  .rodata             const    0x0802e374     0x10  dengxian_regular_14.o [1]
  .rodata             const    0x0802e384     0x10  dengxian_regular_14.o [1]
  .rodata             const    0x0802e394     0x10  dengxian_regular_14.o [1]
  .rodata             const    0x0802e3a4     0x10  dengxian_regular_14.o [1]
  .rodata             const    0x0802e3b4     0x10  dengxian_regular_14.o [1]
  .rodata             const    0x0802e3c4     0x10  dengxian_regular_14.o [1]
  .rodata             const    0x0802e3d4     0x10  dengxian_regular_14.o [1]
  .rodata             const    0x0802e3e4     0x10  dengxian_regular_14.o [1]
  .rodata             const    0x0802e3f4     0x10  dengxian_regular_14.o [1]
  .rodata             const    0x0802e404     0x10  dengxian_regular_14.o [1]
  .rodata             const    0x0802e414     0x10  dengxian_regular_14.o [1]
  .rodata             const    0x0802e424     0x10  dengxian_regular_14.o [1]
  .rodata             const    0x0802e434     0x10  dengxian_regular_14.o [1]
  .rodata             const    0x0802e444     0x10  dengxian_regular_14.o [1]
  .rodata             const    0x0802e454     0x10  dengxian_regular_14.o [1]
  .rodata             const    0x0802e464     0x10  dengxian_regular_14.o [1]
  .rodata             const    0x0802e474     0x10  dengxian_regular_14.o [1]
  .rodata             const    0x0802e484     0x10  dengxian_regular_14.o [1]
  .rodata             const    0x0802e494     0x10  dengxian_regular_14.o [1]
  .rodata             const    0x0802e4a4     0x10  dengxian_regular_14.o [1]
  .rodata             const    0x0802e4b4     0x10  dengxian_regular_14.o [1]
  .rodata             const    0x0802e4c4     0x10  dengxian_regular_14.o [1]
  .rodata             const    0x0802e4d4     0x10  dengxian_regular_14.o [1]
  .rodata             const    0x0802e4e4     0x10  dengxian_regular_14.o [1]
  .rodata             const    0x0802e4f4     0x10  dengxian_regular_14.o [1]
  .rodata             const    0x0802e504     0x10  dengxian_regular_14.o [1]
  .rodata             const    0x0802e514     0x10  dengxian_regular_14.o [1]
  .rodata             const    0x0802e524     0x10  dengxian_regular_14.o [1]
  .rodata             const    0x0802e534     0x10  dengxian_regular_14.o [1]
  .rodata             const    0x0802e544     0x10  dengxian_regular_14.o [1]
  .rodata             const    0x0802e554     0x10  dengxian_regular_14.o [1]
  .rodata             const    0x0802e564     0x10  dengxian_regular_14.o [1]
  .rodata             const    0x0802e574     0x10  dengxian_regular_14.o [1]
  .rodata             const    0x0802e584     0x10  dengxian_regular_14.o [1]
  .rodata             const    0x0802e594     0x10  dengxian_regular_14.o [1]
  .rodata             const    0x0802e5a4     0x10  dengxian_regular_14.o [1]
  .rodata             const    0x0802e5b4     0x10  dengxian_regular_14.o [1]
  .rodata             const    0x0802e5c4     0x10  dengxian_regular_14.o [1]
  .rodata             const    0x0802e5d4     0x10  dengxian_regular_14.o [1]
  .rodata             const    0x0802e5e4     0x10  dengxian_regular_14.o [1]
  .rodata             const    0x0802e5f4     0x10  dengxian_regular_14.o [1]
  .rodata             const    0x0802e604     0x10  dengxian_regular_14.o [1]
  .rodata             const    0x0802e614     0x10  dengxian_regular_14.o [1]
  .rodata             const    0x0802e624     0x10  dengxian_regular_14.o [1]
  .rodata             const    0x0802e634     0x10  dengxian_regular_14.o [1]
  .rodata             const    0x0802e644     0x10  drv_com.o [1]
  .rodata             const    0x0802e654     0x10  drv_sst25_flash.o [1]
  .rodata             const    0x0802e664     0x10  infusion_motor.o [1]
  .rodata             const    0x0802e674     0x10  param.o [1]
  .rodata             const    0x0802e684     0x10  param.o [1]
  .rodata             const    0x0802e694     0x10  param.o [1]
  .rodata             const    0x0802e6a4     0x10  set_arrow.o [1]
  .rodata             const    0x0802e6b4     0x10  ssz_config.o [1]
  .rodata             const    0x0802e6c4     0x10  ssz_sim_i2c.o [1]
  .rodata             const    0x0802e6d4     0x10  ssz_spi.o [1]
  .rodata             const    0x0802e6e4     0x10  string_data.o [1]
  .rodata             const    0x0802e6f4     0x10  string_data.o [1]
  .rodata             const    0x0802e704     0x10  string_data.o [1]
  .rodata             const    0x0802e714     0x10  string_data.o [1]
  .rodata             const    0x0802e724     0x10  string_data.o [1]
  .rodata             const    0x0802e734     0x10  string_data.o [1]
  .rodata             const    0x0802e744     0x10  string_data.o [1]
  .rodata             const    0x0802e754     0x10  string_data.o [1]
  .rodata             const    0x0802e764     0x10  string_data.o [1]
  .rodata             const    0x0802e774     0x10  string_data.o [1]
  .rodata             const    0x0802e784     0x10  string_data.o [1]
  .rodata             const    0x0802e794     0x10  string_data.o [1]
  .rodata             const    0x0802e7a4     0x10  string_data.o [1]
  .rodata             const    0x0802e7b4     0x10  string_data.o [1]
  .rodata             const    0x0802e7c4     0x10  string_data.o [1]
  .rodata             const    0x0802e7d4     0x10  string_data.o [1]
  .rodata             const    0x0802e7e4     0x10  string_data.o [1]
  .rodata             const    0x0802e7f4     0x10  string_data.o [1]
  .rodata             const    0x0802e804     0x10  string_data.o [1]
  .rodata             const    0x0802e814     0x10  string_data.o [1]
  .rodata             const    0x0802e824     0x10  string_data.o [1]
  .rodata             const    0x0802e834     0x10  string_data.o [1]
  .rodata             const    0x0802e844     0x10  string_data.o [1]
  .rodata             const    0x0802e854     0x10  string_data.o [1]
  .rodata             const    0x0802e864     0x10  string_data.o [1]
  .rodata             const    0x0802e874     0x10  string_data.o [1]
  .rodata             const    0x0802e884     0x10  string_data.o [1]
  .rodata             const    0x0802e894     0x10  string_data.o [1]
  .rodata             const    0x0802e8a4     0x10  string_data.o [1]
  .rodata             const    0x0802e8b4     0x10  string_data.o [1]
  .rodata             const    0x0802e8c4     0x10  string_data.o [1]
  .rodata             const    0x0802e8d4     0x10  string_data.o [1]
  .rodata             const    0x0802e8e4     0x10  string_data.o [1]
  .rodata             const    0x0802e8f4     0x10  string_data.o [1]
  .rodata             const    0x0802e904     0x10  string_data.o [1]
  .rodata             const    0x0802e914     0x10  string_data.o [1]
  .rodata             const    0x0802e924     0x10  string_data.o [1]
  .rodata             const    0x0802e934     0x10  string_data.o [1]
  .rodata             const    0x0802e944     0x10  string_data.o [1]
  .rodata             const    0x0802e954     0x10  string_data.o [1]
  .rodata             const    0x0802e964     0x10  string_data.o [1]
  .rodata             const    0x0802e974     0x10  string_data.o [1]
  .rodata             const    0x0802e984     0x10  string_data.o [1]
  .rodata             const    0x0802e994     0x10  string_data.o [1]
  .rodata             const    0x0802e9a4     0x10  string_data.o [1]
  .rodata             const    0x0802e9b4     0x10  string_data.o [1]
  .rodata             const    0x0802e9c4     0x10  string_data.o [1]
  .rodata             const    0x0802e9d4     0x10  string_data.o [1]
  .rodata             const    0x0802e9e4     0x10  string_data.o [1]
  .rodata             const    0x0802e9f4     0x10  string_data.o [1]
  .rodata             const    0x0802ea04     0x10  string_data.o [1]
  .rodata             const    0x0802ea14     0x10  string_data.o [1]
  .rodata             const    0x0802ea24     0x10  string_data.o [1]
  .rodata             const    0x0802ea34     0x10  string_data.o [1]
  .rodata             const    0x0802ea44     0x10  string_data.o [1]
  .rodata             const    0x0802ea54     0x10  system_stm32l1xx.o [1]
  .rodata             const    0x0802ea64     0x10  three_valve_motor.o [1]
  .rodata             const    0x0802ea74     0x10  version.o [1]
  .text               ro code  0x0802ea84     0x10  startup_stm32l152xc.o [1]
  .rodata             const    0x0802ea94      0xc  alarm.o [1]
  .rodata             const    0x0802eaa0      0xc  app_cmd.o [1]
  .rodata             const    0x0802eaac      0xc  app_cmd.o [1]
  .rodata             const    0x0802eab8      0xc  app_cmd.o [1]
  .rodata             const    0x0802eac4      0xc  app_cmd.o [1]
  .rodata             const    0x0802ead0      0xc  app_cmd.o [1]
  .rodata             const    0x0802eadc      0xc  app_cmd.o [1]
  .rodata             const    0x0802eae8      0xc  app_cmd.o [1]
  .rodata             const    0x0802eaf4      0xc  app_cmd.o [1]
  .rodata             const    0x0802eb00      0xc  app_cmd.o [1]
  .rodata             const    0x0802eb0c      0xc  app_cmd.o [1]
  .rodata             const    0x0802eb18      0xc  app_cmd.o [1]
  .rodata             const    0x0802eb24      0xc  app_cmd.o [1]
  .rodata             const    0x0802eb30      0xc  app_cmd.o [1]
  .rodata             const    0x0802eb3c      0xc  app_cmd.o [1]
  .rodata             const    0x0802eb48      0xc  app_cmd.o [1]
  .rodata             const    0x0802eb54      0xc  app_cmd.o [1]
  .rodata             const    0x0802eb60      0xc  app_cmd.o [1]
  .rodata             const    0x0802eb6c      0xc  app_cmd.o [1]
  .rodata             const    0x0802eb78      0xc  app_cmd.o [1]
  .rodata             const    0x0802eb84      0xc  app_cmd.o [1]
  .rodata             const    0x0802eb90      0xc  app_cmd.o [1]
  .rodata             const    0x0802eb9c      0xc  app_cmd.o [1]
  .rodata             const    0x0802eba8      0xc  app_cmd.o [1]
  .rodata             const    0x0802ebb4      0xc  app_cmd.o [1]
  .rodata             const    0x0802ebc0      0xc  app_cmd.o [1]
  .rodata             const    0x0802ebcc      0xc  app_cmd.o [1]
  .rodata             const    0x0802ebd8      0xc  app_cmd.o [1]
  .rodata             const    0x0802ebe4      0xc  app_cmd.o [1]
  .rodata             const    0x0802ebf0      0xc  app_cmd.o [1]
  .rodata             const    0x0802ebfc      0xc  app_cmd.o [1]
  .rodata             const    0x0802ec08      0xc  app_cmd.o [1]
  .rodata             const    0x0802ec14      0xc  app_cmd.o [1]
  .rodata             const    0x0802ec20      0xc  app_cmd.o [1]
  .rodata             const    0x0802ec2c      0xc  app_cmd.o [1]
  .rodata             const    0x0802ec38      0xc  app_cmd.o [1]
  .rodata             const    0x0802ec44      0xc  app_cmd.o [1]
  .rodata             const    0x0802ec50      0xc  app_cmd.o [1]
  .rodata             const    0x0802ec5c      0xc  app_cmd.o [1]
  .rodata             const    0x0802ec68      0xc  app_cmd.o [1]
  .rodata             const    0x0802ec74      0xc  app_cmd.o [1]
  .rodata             const    0x0802ec80      0xc  app_cmd.o [1]
  .rodata             const    0x0802ec8c      0xc  app_cmd.o [1]
  .rodata             const    0x0802ec98      0xc  app_cmd.o [1]
  .rodata             const    0x0802eca4      0xc  app_cmd.o [1]
  .rodata             const    0x0802ecb0      0xc  app_cmd.o [1]
  .rodata             const    0x0802ecbc      0xc  app_common.o [1]
  .rodata             const    0x0802ecc8      0xc  app_delivery.o [1]
  .rodata             const    0x0802ecd4      0xc  app_history_log.o [1]
  .rodata             const    0x0802ece0      0xc  app_home.o [1]
  .rodata             const    0x0802ecec      0xc  app_infusion_monitor.o [1]
  .rodata             const    0x0802ecf8      0xc  app_infusion_monitor.o [1]
  .rodata             const    0x0802ed04      0xc  app_main_menu.o [1]
  .rodata             const    0x0802ed10      0xc  app_mcu_comm.o [1]
  .rodata             const    0x0802ed1c      0xc  app_mcu_monitor.o [1]
  .rodata             const    0x0802ed28      0xc  app_msg_handle.o [1]
  .rodata             const    0x0802ed34      0xc  app_msg_handle.o [1]
  .rodata             const    0x0802ed40      0xc  app_operation_log.o [1]
  .rodata             const    0x0802ed4c      0xc  app_scr_alarm.o [1]
  .rodata             const    0x0802ed58      0xc  app_scr_set_infusion_duration.o [1]
  .rodata             const    0x0802ed64      0xc  app_scr_task_confirm.o [1]
  .rodata             const    0x0802ed70      0xc  app_set_menu.o [1]
  .rodata             const    0x0802ed7c      0xc  app_system_monitor.o [1]
  .rodata             const    0x0802ed88      0xc  data.o [1]
  .rodata             const    0x0802ed94      0xc  data.o [1]
  .rodata             const    0x0802eda0      0xc  dengxian_regular_14.o [1]
  .rodata             const    0x0802edac      0xc  font_data.o [1]
  .rodata             const    0x0802edb8      0xc  heiti_regular_60.o [1]
  .rodata             const    0x0802edc4      0xc  heiti_regular_88.o [1]
  .rodata             const    0x0802edd0      0xc  infusion_motor.o [1]
  .rodata             const    0x0802eddc      0xc  lock.o [1]
  .rodata             const    0x0802ede8      0xc  mid_rtc.o [1]
  .rodata             const    0x0802edf4      0xc  mid_rtc.o [1]
  .rodata             const    0x0802ee00      0xc  scr_factory_mode.o [1]
  .rodata             const    0x0802ee0c      0xc  scr_new_pressure_calibration.o [1]
  .rodata             const    0x0802ee18      0xc  scr_new_pressure_calibration.o [1]
  .rodata             const    0x0802ee24      0xc  screen.o [1]
  .rodata             const    0x0802ee30      0xc  ssz_time_utility.o [1]
  .rodata             const    0x0802ee3c      0xc  string_data.o [1]
  .rodata             const    0x0802ee48      0xc  string_data.o [1]
  .rodata             const    0x0802ee54      0xc  string_data.o [1]
  .rodata             const    0x0802ee60      0xc  string_data.o [1]
  .rodata             const    0x0802ee6c      0xc  string_data.o [1]
  .rodata             const    0x0802ee78      0xc  string_data.o [1]
  .rodata             const    0x0802ee84      0xc  string_data.o [1]
  .rodata             const    0x0802ee90      0xc  string_data.o [1]
  .rodata             const    0x0802ee9c      0xc  string_data.o [1]
  .rodata             const    0x0802eea8      0xc  string_data.o [1]
  .rodata             const    0x0802eeb4      0xc  string_data.o [1]
  .rodata             const    0x0802eec0      0xc  system_stm32l1xx.o [1]
  .rodata             const    0x0802eecc      0xc  three_valve_motor.o [1]
  .rodata             const    0x0802eed8      0xc  ui_number_edit.o [1]
  .rodata             const    0x0802eee4      0xc  ui_number_edit.o [1]
  .rodata             const    0x0802eef0      0xc  ui_statusbar.o [1]
  .rodata             const    0x0802eefc      0xc  ui_statusbar.o [1]
  .text               ro code  0x0802ef08      0xc  cstartup_M.o [5]
  .rodata             const    0x0802ef14      0x8  alarm.o [1]
  .rodata             const    0x0802ef1c      0x8  app_cmd.o [1]
  .rodata             const    0x0802ef24      0x8  app_cmd.o [1]
  .rodata             const    0x0802ef2c      0x8  app_cmd.o [1]
  .rodata             const    0x0802ef34      0x8  app_cmd.o [1]
  .rodata             const    0x0802ef3c      0x8  app_cmd.o [1]
  .rodata             const    0x0802ef44      0x8  app_cmd.o [1]
  .rodata             const    0x0802ef4c      0x8  app_cmd.o [1]
  .rodata             const    0x0802ef54      0x8  app_cmd.o [1]
  .rodata             const    0x0802ef5c      0x8  app_cmd.o [1]
  .rodata             const    0x0802ef64      0x8  app_cmd.o [1]
  .rodata             const    0x0802ef6c      0x8  app_cmd.o [1]
  .rodata             const    0x0802ef74      0x8  app_cmd.o [1]
  .rodata             const    0x0802ef7c      0x8  app_cmd.o [1]
  .rodata             const    0x0802ef84      0x8  app_cmd.o [1]
  .rodata             const    0x0802ef8c      0x8  app_cmd.o [1]
  .rodata             const    0x0802ef94      0x8  app_cmd.o [1]
  .rodata             const    0x0802ef9c      0x8  app_cmd.o [1]
  .rodata             const    0x0802efa4      0x8  app_cmd.o [1]
  .rodata             const    0x0802efac      0x8  app_cmd.o [1]
  .rodata             const    0x0802efb4      0x8  app_cmd.o [1]
  .rodata             const    0x0802efbc      0x8  app_cmd.o [1]
  .rodata             const    0x0802efc4      0x8  app_cmd.o [1]
  .rodata             const    0x0802efcc      0x8  app_cmd.o [1]
  .rodata             const    0x0802efd4      0x8  app_cmd.o [1]
  .rodata             const    0x0802efdc      0x8  app_cmd.o [1]
  .rodata             const    0x0802efe4      0x8  app_cmd.o [1]
  .rodata             const    0x0802efec      0x8  app_cmd.o [1]
  .rodata             const    0x0802eff4      0x8  app_cmd.o [1]
  .rodata             const    0x0802effc      0x8  app_cmd.o [1]
  .rodata             const    0x0802f004      0x8  app_cmd.o [1]
  .rodata             const    0x0802f00c      0x8  app_common.o [1]
  .rodata             const    0x0802f014      0x8  app_delivery.o [1]
  .rodata             const    0x0802f01c      0x8  app_home.o [1]
  .rodata             const    0x0802f024      0x8  app_infusion_monitor.o [1]
  .rodata             const    0x0802f02c      0x8  app_mcu_comm.o [1]
  .rodata             const    0x0802f034      0x8  app_mcu_comm.o [1]
  .rodata             const    0x0802f03c      0x8  app_mcu_comm.o [1]
  .rodata             const    0x0802f044      0x8  app_mcu_monitor.o [1]
  .rodata             const    0x0802f04c      0x8  app_msg_handle.o [1]
  .rodata             const    0x0802f054      0x8  app_popup.o [1]
  .rodata             const    0x0802f05c      0x8  app_popup.o [1]
  .rodata             const    0x0802f064      0x8  app_popup.o [1]
  .rodata             const    0x0802f06c      0x8  app_popup.o [1]
  .rodata             const    0x0802f074      0x8  app_scr_alarm.o [1]
  .rodata             const    0x0802f07c      0x8  app_scr_alarm.o [1]
  .rodata             const    0x0802f084      0x8  app_scr_alarm.o [1]
  .rodata             const    0x0802f08c      0x8  app_scr_alarm.o [1]
  .rodata             const    0x0802f094      0x8  app_scr_alarm.o [1]
  .rodata             const    0x0802f09c      0x8  app_scr_set_infusion_duration.o [1]
  .rodata             const    0x0802f0a4      0x8  app_scr_set_infusion_duration.o [1]
  .rodata             const    0x0802f0ac      0x8  app_scr_set_infusion_duration.o [1]
  .rodata             const    0x0802f0b4      0x8  app_scr_set_infusion_duration.o [1]
  .rodata             const    0x0802f0bc      0x8  app_scr_set_infusion_speed.o [1]
  .rodata             const    0x0802f0c4      0x8  app_scr_set_infusion_speed.o [1]
  .rodata             const    0x0802f0cc      0x8  app_scr_set_infusion_speed.o [1]
  .rodata             const    0x0802f0d4      0x8  app_scr_set_infusion_speed.o [1]
  .rodata             const    0x0802f0dc      0x8  app_scr_set_infusion_speed.o [1]
  .rodata             const    0x0802f0e4      0x8  app_scr_set_peek_mode_speed.o [1]
  .rodata             const    0x0802f0ec      0x8  app_set_menu.o [1]
  .rodata             const    0x0802f0f4      0x8  app_system_monitor.o [1]
  .rodata             const    0x0802f0fc      0x8  common.o [1]
  .rodata             const    0x0802f104      0x8  common.o [1]
  .rodata             const    0x0802f10c      0x8  common.o [1]
  .rodata             const    0x0802f114      0x8  data.o [1]
  .rodata             const    0x0802f11c      0x8  drv_sst25_flash.o [1]
  .rodata             const    0x0802f124      0x8  exhaust_pause.o [1]
  .rodata             const    0x0802f12c      0x8  exhaust_run.o [1]
  .rodata             const    0x0802f134      0x8  font_data.o [1]
  .rodata             const    0x0802f13c      0x8  font_data.o [1]
  .rodata             const    0x0802f144      0x8  font_data.o [1]
  .rodata             const    0x0802f14c      0x8  infusion_motor.o [1]
  .rodata             const    0x0802f154      0x8  left_arrow.o [1]
  .rodata             const    0x0802f15c      0x8  mid_rtc.o [1]
  .rodata             const    0x0802f164      0x8  record_log.o [1]
  .rodata             const    0x0802f16c      0x8  record_log_text.o [1]
  .rodata             const    0x0802f174      0x8  record_log_text.o [1]
  .rodata             const    0x0802f17c      0x8  record_log_text.o [1]
  .rodata             const    0x0802f184      0x8  record_log_text.o [1]
  .rodata             const    0x0802f18c      0x8  right_arrow.o [1]
  .rodata             const    0x0802f194      0x8  scr_battery_calibration.o [1]
  .rodata             const    0x0802f19c      0x8  scr_battery_calibration.o [1]
  .rodata             const    0x0802f1a4      0x8  scr_new_pressure_calibration.o [1]
  .rodata             const    0x0802f1ac      0x8  scr_new_pressure_calibration.o [1]
  .rodata             const    0x0802f1b4      0x8  scr_tip_popup.o [1]
  .rodata             const    0x0802f1bc      0x8  scr_tip_popup.o [1]
  .rodata             const    0x0802f1c4      0x8  scr_tip_popup.o [1]
  .rodata             const    0x0802f1cc      0x8  scr_tip_popup.o [1]
  .rodata             const    0x0802f1d4      0x8  scr_unlock_tip.o [1]
  .rodata             const    0x0802f1dc      0x8  screen.o [1]
  .rodata             const    0x0802f1e4      0x8  selected_pointer.o [1]
  .rodata             const    0x0802f1ec      0x8  ssz_sim_i2c.o [1]
  .rodata             const    0x0802f1f4      0x8  string_data.o [1]
  .rodata             const    0x0802f1fc      0x8  string_data.o [1]
  .rodata             const    0x0802f204      0x8  string_data.o [1]
  .rodata             const    0x0802f20c      0x8  string_data.o [1]
  .rodata             const    0x0802f214      0x8  string_data.o [1]
  .rodata             const    0x0802f21c      0x8  string_data.o [1]
  .rodata             const    0x0802f224      0x8  string_data.o [1]
  .rodata             const    0x0802f22c      0x8  string_data.o [1]
  .rodata             const    0x0802f234      0x8  string_data.o [1]
  .rodata             const    0x0802f23c      0x8  string_data.o [1]
  .rodata             const    0x0802f244      0x8  string_data.o [1]
  .rodata             const    0x0802f24c      0x8  string_data.o [1]
  .rodata             const    0x0802f254      0x8  string_data.o [1]
  .rodata             const    0x0802f25c      0x8  string_data.o [1]
  .rodata             const    0x0802f264      0x8  string_data.o [1]
  .rodata             const    0x0802f26c      0x8  string_data.o [1]
  .rodata             const    0x0802f274      0x8  string_data.o [1]
  .rodata             const    0x0802f27c      0x8  string_data.o [1]
  .rodata             const    0x0802f284      0x8  string_data.o [1]
  .rodata             const    0x0802f28c      0x8  string_data.o [1]
  .rodata             const    0x0802f294      0x8  string_data.o [1]
  .rodata             const    0x0802f29c      0x8  string_data.o [1]
  .rodata             const    0x0802f2a4      0x8  string_data.o [1]
  .rodata             const    0x0802f2ac      0x8  string_data.o [1]
  .rodata             const    0x0802f2b4      0x8  system_stm32l1xx.o [1]
  .rodata             const    0x0802f2bc      0x8  three_valve_motor.o [1]
  .rodata             const    0x0802f2c4      0x8  ui_draw.o [1]
  .rodata             const    0x0802f2cc      0x8  ui_draw.o [1]
  .rodata             const    0x0802f2d4      0x8  ui_list_pos_indicator.o [1]
  .rodata             const    0x0802f2dc      0x8  ui_number_edit.o [1]
  .rodata             const    0x0802f2e4      0x8  ui_statusbar.o [1]
  .rodata             const    0x0802f2ec      0x8  ui_view.o [1]
  .rodata             const    0x0802f2f4      0x4  app_cmd.o [1]
  .rodata             const    0x0802f2f8      0x4  app_cmd.o [1]
  .rodata             const    0x0802f2fc      0x4  app_cmd.o [1]
  .rodata             const    0x0802f300      0x4  app_scr_event_handle.o [1]
  .rodata             const    0x0802f304      0x4  app_system_monitor.o [1]
  .rodata             const    0x0802f308      0x4  data.o [1]
  .rodata             const    0x0802f30c      0x4  data.o [1]
  .rodata             const    0x0802f310      0x4  ssz_spi.o [1]
  .rodata             const    0x0802f314      0x4  string_data.o [1]
  .rodata             const    0x0802f318      0x4  string_data.o [1]
  .rodata             const    0x0802f31c      0x4  string_data.o [1]
  .rodata             const    0x0802f320      0x4  string_data.o [1]
  .rodata             const    0x0802f324      0x4  string_data.o [1]
  .rodata             const    0x0802f328      0x4  string_data.o [1]
  .rodata             const    0x0802f32c      0x4  string_data.o [1]
  .rodata             const    0x0802f330      0x4  string_data.o [1]
  .text               ro code  0x0802f334      0x4  startup_stm32l152xc.o [1]
  .text               ro code  0x0802f338      0x4  startup_stm32l152xc.o [1]
  .text               ro code  0x0802f33c      0x4  startup_stm32l152xc.o [1]
  .text               ro code  0x0802f340      0x4  startup_stm32l152xc.o [1]
  .text               ro code  0x0802f344      0x4  startup_stm32l152xc.o [1]
  .text               ro code  0x0802f348      0x4  startup_stm32l152xc.o [1]
  .text               ro code  0x0802f34c      0x4  startup_stm32l152xc.o [1]
  .text               ro code  0x0802f350      0x4  startup_stm32l152xc.o [1]
  .text               ro code  0x0802f354      0x4  startup_stm32l152xc.o [1]
  .text               ro code  0x0802f358      0x4  startup_stm32l152xc.o [1]
  .text               ro code  0x0802f35c      0x4  startup_stm32l152xc.o [1]
  .text               ro code  0x0802f360      0x4  startup_stm32l152xc.o [1]
  .text               ro code  0x0802f364      0x4  startup_stm32l152xc.o [1]
  .text               ro code  0x0802f368      0x4  startup_stm32l152xc.o [1]
  .text               ro code  0x0802f36c      0x4  startup_stm32l152xc.o [1]
  .text               ro code  0x0802f370      0x4  startup_stm32l152xc.o [1]
  .text               ro code  0x0802f374      0x4  startup_stm32l152xc.o [1]
  .text               ro code  0x0802f378      0x4  startup_stm32l152xc.o [1]
  .text               ro code  0x0802f37c      0x4  startup_stm32l152xc.o [1]
  .text               ro code  0x0802f380      0x4  startup_stm32l152xc.o [1]
  .text               ro code  0x0802f384      0x4  startup_stm32l152xc.o [1]
  .text               ro code  0x0802f388      0x4  startup_stm32l152xc.o [1]
  .text               ro code  0x0802f38c      0x4  startup_stm32l152xc.o [1]
  .text               ro code  0x0802f390      0x4  startup_stm32l152xc.o [1]
  .text               ro code  0x0802f394      0x4  startup_stm32l152xc.o [1]
  .text               ro code  0x0802f398      0x4  startup_stm32l152xc.o [1]
  .text               ro code  0x0802f39c      0x4  startup_stm32l152xc.o [1]
  .text               ro code  0x0802f3a0      0x4  startup_stm32l152xc.o [1]
  .text               ro code  0x0802f3a4      0x4  startup_stm32l152xc.o [1]
  .text               ro code  0x0802f3a8      0x4  startup_stm32l152xc.o [1]
  .text               ro code  0x0802f3ac      0x4  startup_stm32l152xc.o [1]
  .text               ro code  0x0802f3b0      0x4  startup_stm32l152xc.o [1]
  .text               ro code  0x0802f3b4      0x4  startup_stm32l152xc.o [1]
  .text               ro code  0x0802f3b8      0x4  startup_stm32l152xc.o [1]
  .text               ro code  0x0802f3bc      0x4  startup_stm32l152xc.o [1]
  .text               ro code  0x0802f3c0      0x4  startup_stm32l152xc.o [1]
  .text               ro code  0x0802f3c4      0x4  startup_stm32l152xc.o [1]
  .text               ro code  0x0802f3c8      0x4  startup_stm32l152xc.o [1]
  .text               ro code  0x0802f3cc      0x4  startup_stm32l152xc.o [1]
  .text               ro code  0x0802f3d0      0x4  startup_stm32l152xc.o [1]
  .text               ro code  0x0802f3d4      0x4  startup_stm32l152xc.o [1]
  .text               ro code  0x0802f3d8      0x4  startup_stm32l152xc.o [1]
  .text               ro code  0x0802f3dc      0x4  startup_stm32l152xc.o [1]
  .text               ro code  0x0802f3e0      0x4  startup_stm32l152xc.o [1]
  .text               ro code  0x0802f3e4      0x4  startup_stm32l152xc.o [1]
  .text               ro code  0x0802f3e8      0x4  startup_stm32l152xc.o [1]
  .text               ro code  0x0802f3ec      0x4  startup_stm32l152xc.o [1]
  .text               ro code  0x0802f3f0      0x4  ui_number_edit.o [1]
  .text               ro code  0x0802f3f4      0x4  ui_text_list.o [1]
  .text               ro code  0x0802f3f8      0x4  ui_window.o [1]
  .text               ro code  0x0802f3fc      0x4  ui_window.o [1]
  .text               ro code  0x0802f400      0x4  ui_window.o [1]
  .text               ro code  0x0802f404      0x4  xpurevirtual.o [3]
  .rodata             const    0x0802f408      0x0  zero_init3.o [5]
  .rodata             const    0x0802f408      0x0  lz77_init_single.o [5]
  Initializer bytes   const    0x0802f408     0x84  <for P2-1>
                             - 0x0802f48c  0x2f368

"P2", part 1 of 3:                            0xad
  P2-1                         0x20000000     0xad  <Init block>
    .data             inited   0x20000000      0x4  alarm.o [1]
    .data             inited   0x20000004      0x4  alarm.o [1]
    .data             inited   0x20000008      0x4  alarm.o [1]
    .data             inited   0x2000000c      0x4  alarm.o [1]
    .data             inited   0x20000010      0x4  alarm.o [1]
    .data             inited   0x20000014      0x4  app_common.o [1]
    .data             inited   0x20000018      0x4  app_mcu_monitor.o [1]
    .data             inited   0x2000001c      0x8  app_scr_set_date.o [1]
    .data             inited   0x20000024      0x4  app_scr_set_infusion_duration.o [1]
    .data             inited   0x20000028      0x4  app_scr_set_infusion_speed.o [1]
    .data             inited   0x2000002c      0x4  app_scr_set_peek_mode_duration.o [1]
    .data             inited   0x20000030      0x4  app_system_monitor.o [1]
    .data             inited   0x20000034      0x4  app_system_monitor.o [1]
    .data             inited   0x20000038     0x28  common.o [1]
    .data             inited   0x20000060      0x8  drv_sst25_flash.o [1]
    .data             inited   0x20000068      0x4  drv_sst25_flash.o [1]
    .data             inited   0x2000006c      0x4  infusion_motor.o [1]
    .data             inited   0x20000070      0x4  infusion_motor.o [1]
    .data             inited   0x20000074      0x4  msg.o [1]
    .data             inited   0x20000078      0x4  param.o [1]
    .data             inited   0x2000007c      0x4  screen.o [1]
    .data             inited   0x20000080      0x4  system_stm32l1xx.o [1]
    .data             inited   0x20000084      0x4  three_valve_motor.o [1]
    .data             inited   0x20000088      0x4  three_valve_motor.o [1]
    .data             inited   0x2000008c      0x4  ui_draw.o [1]
    .data             inited   0x20000090     0x10  version.o [1]
    __DLIB_PERTHREAD  inited   0x200000a0      0x4  errno.o [3]
    .data             inited   0x200000a4      0x1  alarm_play.o [1]
    .data             inited   0x200000a5      0x1  app_alarm_event_handle.o [1]
    .data             inited   0x200000a6      0x1  app_common.o [1]
    .data             inited   0x200000a7      0x1  app_scr_set_infusion_speed.o [1]
    .data             inited   0x200000a8      0x1  app_system_monitor.o [1]
    .data             inited   0x200000a9      0x1  drv_oled.o [1]
    .data             inited   0x200000aa      0x1  mid_common.o [1]
    .data             inited   0x200000ab      0x1  param.o [1]
    .data             inited   0x200000ac      0x1  param.o [1]
                             - 0x200000ad     0xad

"P2", part 2 of 3:                          0x1400
  CSTACK                       0x200000b0   0x1000  <Block>
    CSTACK            uninit   0x200000b0   0x1000  <Block tail>
  HEAP                         0x200010b0    0x400  <Block>
    HEAP              uninit   0x200010b0    0x400  <Block tail>
                             - 0x200014b0   0x1400

"P2", part 3 of 3:                          0x6768
  .bss                zero     0x200014b0   0x2000  display.o [1]
  .bss                zero     0x200034b0   0x1000  ssz_common.o [1]
  .bss                zero     0x200044b0    0x4b0  app_infusion_monitor.o [1]
  .bss                zero     0x20004960    0x384  ssz_ui_view_config.o [1]
  .bss                zero     0x20004ce4    0x320  screen.o [1]
  .bss                zero     0x20005004    0x2e0  timer.o [1]
  .bss                zero     0x200052e4    0x2d0  ssz_ui_view_config.o [1]
  .bss                zero     0x200055b4    0x200  ssz_common.o [1]
  .bss                zero     0x200057b4    0x1d8  dlmalloc.o [3]
  .bss                zero     0x2000598c    0x1c0  data.o [1]
  .bss                zero     0x20005b4c    0x190  stop_watch.o [1]
  .bss                zero     0x20005cdc    0x180  string_data.o [1]
  .bss                zero     0x20005e5c    0x140  ui_view.o [1]
  .bss                zero     0x20005f9c    0x138  ssz_ui_view_config.o [1]
  .bss                zero     0x200060d4    0x110  ssz_ui_view_config.o [1]
  .bss                zero     0x200061e4    0x10c  ssz_ui_view_config.o [1]
  .bss                zero     0x200062f0    0x100  drv_com.o [1]
  .bss                zero     0x200063f0     0xf0  msg.o [1]
  .bss                zero     0x200064e0     0xf0  ui_view.o [1]
  .bss                zero     0x200065d0     0xd4  ssz_ui_view_config.o [1]
  .bss                zero     0x200066a4     0xc0  data.o [1]
  .bss                zero     0x20006764     0xa8  alarm.o [1]
  .bss                zero     0x2000680c     0x9c  ssz_ui_view_config.o [1]
  .bss                zero     0x200068a8     0x8c  key.o [1]
  .bss                zero     0x20006934     0x84  app_delivery.o [1]
  .bss                zero     0x200069b8     0x80  app_history_log.o [1]
  .bss                zero     0x20006a38     0x80  app_operation_log.o [1]
  .bss                zero     0x20006ab8     0x80  ui_draw.o [1]
  .bss                zero     0x20006b38     0x78  simple_alloc_config.o [1]
  .bss                zero     0x20006bb0     0x78  simple_alloc_config.o [1]
  .bss                zero     0x20006c28     0x70  record_log.o [1]
  .bss                zero     0x20006c98     0x70  simple_alloc_config.o [1]
  .bss                zero     0x20006d08     0x6c  drv_com.o [1]
  .bss                zero     0x20006d74     0x6c  msg.o [1]
  .bss                zero     0x20006de0     0x60  alarm.o [1]
  .bss                zero     0x20006e40     0x5c  ssz_ui_view_config.o [1]
  .bss                zero     0x20006e9c     0x58  spi.o [1]
  .bss                zero     0x20006ef4     0x58  spi.o [1]
  .bss                zero     0x20006f4c     0x58  spi.o [1]
  .bss                zero     0x20006fa4     0x54  adc.o [1]
  .bss                zero     0x20006ff8     0x50  alarm.o [1]
  .bss                zero     0x20007048     0x50  simple_alloc.o [1]
  .bss                zero     0x20007098     0x50  ui_view.o [1]
  .bss                zero     0x200070e8     0x40  data.o [1]
  .bss                zero     0x20007128     0x40  drv_com.o [1]
  .bss                zero     0x20007168     0x40  drv_com.o [1]
  .bss                zero     0x200071a8     0x40  ssz_ui_view_config.o [1]
  .bss                zero     0x200071e8     0x40  usart.o [1]
  .bss                zero     0x20007228     0x40  usart.o [1]
  .bss                zero     0x20007268     0x40  usart.o [1]
  .bss                zero     0x200072a8     0x3c  app_cmd.o [1]
  .bss                zero     0x200072e4     0x3c  app_cmd.o [1]
  .bss                zero     0x20007320     0x3c  app_mcu_comm.o [1]
  .bss                zero     0x2000735c     0x38  ssz_ui_view_config.o [1]
  .bss                zero     0x20007394     0x38  tim.o [1]
  .bss                zero     0x200073cc     0x38  tim.o [1]
  .bss                zero     0x20007404     0x38  tim.o [1]
  .bss                zero     0x2000743c     0x38  tim.o [1]
  .bss                zero     0x20007474     0x38  ui_draw.o [1]
  .bss                zero     0x200074ac     0x38  ui_draw.o [1]
  .bss                zero     0x200074e4     0x34  scr_new_pressure_calibration.o [1]
  .bss                zero     0x20007518     0x30  event.o [1]
  .bss                zero     0x20007548     0x30  event.o [1]
  .bss                zero     0x20007578     0x30  key.o [1]
  .bss                zero     0x200075a8     0x2c  data.o [1]
  .bss                zero     0x200075d4     0x28  alarm.o [1]
  .bss                zero     0x200075fc     0x28  app_common.o [1]
  .bss                zero     0x20007624     0x28  app_infusion_monitor.o [1]
  .bss                zero     0x2000764c     0x28  app_infusion_monitor.o [1]
  .bss                zero     0x20007674     0x28  dtimer.o [1]
  .bss                zero     0x2000769c     0x28  scr_new_pressure_calibration.o [1]
  .bss                zero     0x200076c4     0x28  scr_new_pressure_calibration.o [1]
  .bss                zero     0x200076ec     0x28  scr_new_pressure_calibration.o [1]
  .bss                zero     0x20007714     0x24  com.o [1]
  .bss                zero     0x20007738     0x20  alarm.o [1]
  .bss                zero     0x20007758     0x20  data.o [1]
  .bss                zero     0x20007778     0x20  scr_precision_calibration.o [1]
  .bss                zero     0x20007798     0x1c  app_common.o [1]
  .bss                zero     0x200077b4     0x1c  data.o [1]
  .bss                zero     0x200077d0     0x1c  drv_rtc.o [1]
  .bss                zero     0x200077ec     0x1c  stop_watch.o [1]
  .bss                zero     0x20007808     0x18  drv_com.o [1]
  .bss                zero     0x20007820     0x18  dlmalloc.o [3]
  .bss                zero     0x20007838     0x14  data.o [1]
  .bss                zero     0x2000784c     0x14  ssz_tick_time.o [1]
  .bss                zero     0x20007860     0x14  ssz_time.o [1]
  .bss                zero     0x20007874     0x10  alarm.o [1]
  .bss                zero     0x20007884     0x10  alarm.o [1]
  .bss                zero     0x20007894     0x10  alarm.o [1]
  .bss                zero     0x200078a4     0x10  alarm.o [1]
  .bss                zero     0x200078b4     0x10  alarm.o [1]
  .bss                zero     0x200078c4     0x10  app_delivery.o [1]
  .bss                zero     0x200078d4     0x10  app_delivery.o [1]
  .bss                zero     0x200078e4     0x10  app_infusion_monitor.o [1]
  .bss                zero     0x200078f4     0x10  app_mcu_comm.o [1]
  .bss                zero     0x20007904     0x10  drv_isd2360.o [1]
  .bss                zero     0x20007914     0x10  drv_oled.o [1]
  .bss                zero     0x20007924     0x10  drv_sst25_flash.o [1]
  .bss                zero     0x20007934     0x10  dtimer.o [1]
  .bss                zero     0x20007944     0x10  msg.o [1]
  .bss                zero     0x20007954     0x10  screen.o [1]
  .bss                zero     0x20007964     0x10  ui_view.o [1]
  .bss                zero     0x20007974     0x10  ui_view.o [1]
  .bss                zero     0x20007984      0xc  app_infusion_monitor.o [1]
  .bss                zero     0x20007990      0xc  com.o [1]
  .bss                zero     0x2000799c      0xc  data.o [1]
  .bss                zero     0x200079a8      0xc  screen.o [1]
  .bss                zero     0x200079b4      0x8  app_scr_set_time.o [1]
  .bss                zero     0x200079bc      0x8  cpu_usage.o [1]
  .bss                zero     0x200079c4      0x8  cpu_usage.o [1]
  .bss                zero     0x200079cc      0x8  display.o [1]
  .bss                zero     0x200079d4      0x8  drv_sst25_flash.o [1]
  .bss                zero     0x200079dc      0x8  key.o [1]
  .bss                zero     0x200079e4      0x8  key.o [1]
  .bss                zero     0x200079ec      0x8  mid_rtc.o [1]
  .bss                zero     0x200079f4      0x8  mid_rtc.o [1]
  .bss                zero     0x200079fc      0x8  ssz_time.o [1]
  .bss                zero     0x20007a04      0x4  alarm_play.o [1]
  .bss                zero     0x20007a08      0x4  alarm_play.o [1]
  .bss                zero     0x20007a0c      0x4  app_cmd.o [1]
  .bss                zero     0x20007a10      0x4  app_cmd.o [1]
  .bss                zero     0x20007a14      0x4  app_delivery.o [1]
  .bss                zero     0x20007a18      0x4  app_delivery.o [1]
  .bss                zero     0x20007a1c      0x4  app_delivery.o [1]
  .bss                zero     0x20007a20      0x4  app_delivery.o [1]
  .bss                zero     0x20007a24      0x4  app_delivery.o [1]
  .bss                zero     0x20007a28      0x4  app_delivery.o [1]
  .bss                zero     0x20007a2c      0x4  app_delivery.o [1]
  .bss                zero     0x20007a30      0x4  app_delivery.o [1]
  .bss                zero     0x20007a34      0x4  app_history_log.o [1]
  .bss                zero     0x20007a38      0x4  app_home.o [1]
  .bss                zero     0x20007a3c      0x4  app_home.o [1]
  .bss                zero     0x20007a40      0x4  app_home.o [1]
  .bss                zero     0x20007a44      0x4  app_home.o [1]
  .bss                zero     0x20007a48      0x4  app_home.o [1]
  .bss                zero     0x20007a4c      0x4  app_infusion_monitor.o [1]
  .bss                zero     0x20007a50      0x4  app_infusion_monitor.o [1]
  .bss                zero     0x20007a54      0x4  app_infusion_monitor.o [1]
  .bss                zero     0x20007a58      0x4  app_infusion_monitor.o [1]
  .bss                zero     0x20007a5c      0x4  app_infusion_monitor.o [1]
  .bss                zero     0x20007a60      0x4  app_infusion_monitor.o [1]
  .bss                zero     0x20007a64      0x4  app_infusion_monitor.o [1]
  .bss                zero     0x20007a68      0x4  app_infusion_monitor.o [1]
  .bss                zero     0x20007a6c      0x4  app_infusion_monitor.o [1]
  .bss                zero     0x20007a70      0x4  app_infusion_monitor.o [1]
  .bss                zero     0x20007a74      0x4  app_infusion_monitor.o [1]
  .bss                zero     0x20007a78      0x4  app_infusion_monitor.o [1]
  .bss                zero     0x20007a7c      0x4  app_infusion_monitor.o [1]
  .bss                zero     0x20007a80      0x4  app_infusion_monitor.o [1]
  .bss                zero     0x20007a84      0x4  app_infusion_monitor.o [1]
  .bss                zero     0x20007a88      0x4  app_infusion_monitor.o [1]
  .bss                zero     0x20007a8c      0x4  app_infusion_monitor.o [1]
  .bss                zero     0x20007a90      0x4  app_mcu_comm.o [1]
  .bss                zero     0x20007a94      0x4  app_mcu_comm.o [1]
  .bss                zero     0x20007a98      0x4  app_mcu_monitor.o [1]
  .bss                zero     0x20007a9c      0x4  app_operation_log.o [1]
  .bss                zero     0x20007aa0      0x4  app_scr_set_infusion_duration.o [1]
  .bss                zero     0x20007aa4      0x4  app_scr_set_peek_mode_speed.o [1]
  .bss                zero     0x20007aa8      0x4  app_system_monitor.o [1]
  .bss                zero     0x20007aac      0x4  app_system_monitor.o [1]
  .bss                zero     0x20007ab0      0x4  app_system_monitor.o [1]
  .bss                zero     0x20007ab4      0x4  cpu_usage.o [1]
  .bss                zero     0x20007ab8      0x4  cpu_usage.o [1]
  .bss                zero     0x20007abc      0x4  drv_infusion_motor.o [1]
  .bss                zero     0x20007ac0      0x4  drv_sst25_flash.o [1]
  .bss                zero     0x20007ac4      0x4  drv_stf_motor.o [1]
  .bss                zero     0x20007ac8      0x4  drv_stf_motor.o [1]
  .bss                zero     0x20007acc      0x4  font_data.o [1]
  .bss                zero     0x20007ad0      0x4  infusion_motor.o [1]
  .bss                zero     0x20007ad4      0x4  infusion_motor.o [1]
  .bss                zero     0x20007ad8      0x4  infusion_motor.o [1]
  .bss                zero     0x20007adc      0x4  infusion_motor.o [1]
  .bss                zero     0x20007ae0      0x4  infusion_motor.o [1]
  .bss                zero     0x20007ae4      0x4  infusion_motor.o [1]
  .bss                zero     0x20007ae8      0x4  infusion_motor.o [1]
  .bss                zero     0x20007aec      0x4  infusion_motor.o [1]
  .bss                zero     0x20007af0      0x4  infusion_motor.o [1]
  .bss                zero     0x20007af4      0x4  infusion_motor.o [1]
  .bss                zero     0x20007af8      0x4  infusion_motor.o [1]
  .bss                zero     0x20007afc      0x4  infusion_motor.o [1]
  .bss                zero     0x20007b00      0x4  infusion_motor.o [1]
  .bss                zero     0x20007b04      0x4  infusion_motor.o [1]
  .bss                zero     0x20007b08      0x4  infusion_motor.o [1]
  .bss                zero     0x20007b0c      0x4  infusion_motor.o [1]
  .bss                zero     0x20007b10      0x4  infusion_motor.o [1]
  .bss                zero     0x20007b14      0x4  infusion_motor.o [1]
  .bss                zero     0x20007b18      0x4  key.o [1]
  .bss                zero     0x20007b1c      0x4  led.o [1]
  .bss                zero     0x20007b20      0x4  mid_rtc.o [1]
  .bss                zero     0x20007b24      0x4  mid_rtc.o [1]
  .bss                zero     0x20007b28      0x4  param.o [1]
  .bss                zero     0x20007b2c      0x4  param.o [1]
  .bss                zero     0x20007b30      0x4  param.o [1]
  .bss                zero     0x20007b34      0x4  scr_battery_calibration.o [1]
  .bss                zero     0x20007b38      0x4  scr_new_pressure_calibration.o [1]
  .bss                zero     0x20007b3c      0x4  scr_new_pressure_calibration.o [1]
  .bss                zero     0x20007b40      0x4  scr_new_pressure_calibration.o [1]
  .bss                zero     0x20007b44      0x4  scr_new_pressure_calibration.o [1]
  .bss                zero     0x20007b48      0x4  scr_password_popup.o [1]
  .bss                zero     0x20007b4c      0x4  scr_precision_calibration.o [1]
  .bss                zero     0x20007b50      0x4  scr_set_clean_tube_dose.o [1]
  .bss                zero     0x20007b54      0x4  screen.o [1]
  .bss                zero     0x20007b58      0x4  screen.o [1]
  .bss                zero     0x20007b5c      0x4  ssz_common.o [1]
  .bss                zero     0x20007b60      0x4  ssz_config.o [1]
  .bss                zero     0x20007b64      0x4  ssz_tick_time.o [1]
  .bss                zero     0x20007b68      0x4  ssz_tick_time.o [1]
  .bss                zero     0x20007b6c      0x4  ssz_tick_time.o [1]
  .bss                zero     0x20007b70      0x4  stm32l1xx_hal.o [1]
  .bss                zero     0x20007b74      0x4  string_data.o [1]
  .bss                zero     0x20007b78      0x4  three_valve_motor.o [1]
  .bss                zero     0x20007b7c      0x4  three_valve_motor.o [1]
  .bss                zero     0x20007b80      0x4  three_valve_motor.o [1]
  .bss                zero     0x20007b84      0x4  three_valve_motor.o [1]
  .bss                zero     0x20007b88      0x4  three_valve_motor.o [1]
  .bss                zero     0x20007b8c      0x4  three_valve_motor.o [1]
  .bss                zero     0x20007b90      0x4  three_valve_motor.o [1]
  .bss                zero     0x20007b94      0x4  three_valve_motor.o [1]
  .bss                zero     0x20007b98      0x4  three_valve_motor.o [1]
  .bss                zero     0x20007b9c      0x4  three_valve_motor.o [1]
  .bss                zero     0x20007ba0      0x4  three_valve_motor.o [1]
  .bss                zero     0x20007ba4      0x4  three_valve_motor.o [1]
  .bss                zero     0x20007ba8      0x4  three_valve_motor.o [1]
  .bss                zero     0x20007bac      0x4  ui_draw.o [1]
  .bss                zero     0x20007bb0      0x4  ui_draw.o [1]
  .bss                zero     0x20007bb4      0x4  ui_draw.o [1]
  .bss                zero     0x20007bb8      0x4  ui_draw.o [1]
  .bss                zero     0x20007bbc      0x4  ui_draw.o [1]
  .bss                zero     0x20007bc0      0x4  ui_draw.o [1]
  .bss                zero     0x20007bc4      0x4  ui_draw.o [1]
  .bss                zero     0x20007bc8      0x4  ui_draw.o [1]
  .bss                zero     0x20007bcc      0x4  ui_view.o [1]
  .bss                zero     0x20007bd0      0x4  ui_view.o [1]
  .bss                zero     0x20007bd4      0x4  xgetmemchunk.o [3]
  .bss                zero     0x20007bd8      0x2  ssz_common.o [1]
  .bss                zero     0x20007bda      0x1  alarm_play.o [1]
  .bss                zero     0x20007bdb      0x1  app_cmd.o [1]
  .bss                zero     0x20007bdc      0x1  app_cmd.o [1]
  .bss                zero     0x20007bdd      0x1  app_cmd.o [1]
  .bss                zero     0x20007bde      0x1  app_common.o [1]
  .bss                zero     0x20007bdf      0x1  app_common.o [1]
  .bss                zero     0x20007be0      0x1  app_common.o [1]
  .bss                zero     0x20007be1      0x1  app_common.o [1]
  .bss                zero     0x20007be2      0x1  app_delivery.o [1]
  .bss                zero     0x20007be3      0x1  app_delivery.o [1]
  .bss                zero     0x20007be4      0x1  app_delivery.o [1]
  .bss                zero     0x20007be5      0x1  app_delivery.o [1]
  .bss                zero     0x20007be6      0x1  app_home.o [1]
  .bss                zero     0x20007be7      0x1  app_home.o [1]
  .bss                zero     0x20007be8      0x1  app_infusion_monitor.o [1]
  .bss                zero     0x20007be9      0x1  app_infusion_monitor.o [1]
  .bss                zero     0x20007bea      0x1  app_infusion_monitor.o [1]
  .bss                zero     0x20007beb      0x1  app_infusion_monitor.o [1]
  .bss                zero     0x20007bec      0x1  app_scr_alarm.o [1]
  .bss                zero     0x20007bed      0x1  app_scr_manual_clear_air.o [1]
  .bss                zero     0x20007bee      0x1  app_sleep.o [1]
  .bss                zero     0x20007bef      0x1  display.o [1]
  .bss                zero     0x20007bf0      0x1  display.o [1]
  .bss                zero     0x20007bf1      0x1  drv_interrupt.o [1]
  .bss                zero     0x20007bf2      0x1  drv_lowpower.o [1]
  .bss                zero     0x20007bf3      0x1  drv_lowpower.o [1]
  .bss                zero     0x20007bf4      0x1  drv_lowpower.o [1]
  .bss                zero     0x20007bf5      0x1  drv_oled.o [1]
  .bss                zero     0x20007bf6      0x1  infusion_motor.o [1]
  .bss                zero     0x20007bf7      0x1  infusion_motor.o [1]
  .bss                zero     0x20007bf8      0x1  infusion_motor.o [1]
  .bss                zero     0x20007bf9      0x1  key.o [1]
  .bss                zero     0x20007bfa      0x1  key.o [1]
  .bss                zero     0x20007bfb      0x1  led.o [1]
  .bss                zero     0x20007bfc      0x1  led.o [1]
  .bss                zero     0x20007bfd      0x1  mid_common.o [1]
  .bss                zero     0x20007bfe      0x1  mid_common.o [1]
  .bss                zero     0x20007bff      0x1  param.o [1]
  .bss                zero     0x20007c00      0x1  param.o [1]
  .bss                zero     0x20007c01      0x1  param.o [1]
  .bss                zero     0x20007c02      0x1  pressure_bubble_sensor.o [1]
  .bss                zero     0x20007c03      0x1  record_log.o [1]
  .bss                zero     0x20007c04      0x1  scr_new_pressure_calibration.o [1]
  .bss                zero     0x20007c05      0x1  scr_precision_calibration.o [1]
  .bss                zero     0x20007c06      0x1  scr_sleep.o [1]
  .bss                zero     0x20007c07      0x1  ssz_locale.o [1]
  .bss                zero     0x20007c08      0x1  ssz_locale.o [1]
  .bss                zero     0x20007c09      0x1  stop_watch.o [1]
  .bss                zero     0x20007c0a      0x1  three_valve_motor.o [1]
  .bss                zero     0x20007c0b      0x1  three_valve_motor.o [1]
  .bss                zero     0x20007c0c      0x1  three_valve_motor.o [1]
  .bss                zero     0x20007c0d      0x1  three_valve_motor.o [1]
  .bss                zero     0x20007c0e      0x1  ui_draw.o [1]
  .bss                zero     0x20007c0f      0x1  ui_draw.o [1]
  .bss                zero     0x20007c10      0x1  ui_view.o [1]
  .bss                zero     0x20007c11      0x1  ui_view.o [1]
  .bss                zero     0x20007c12      0x1  ui_view.o [1]
  .bss                zero     0x20007c13      0x1  vibrater_motor.o [1]
  .bss                zero     0x20007c14      0x1  voice.o [1]
                             - 0x20007c15   0x6765


*******************************************************************************
*** INIT TABLE
***

          Address     Size
          -------     ----
Zero (__iar_zero_init3)
    1 destination range, total size 0x6765:
          0x200014b0  0x6765

Copy/lz77 (__iar_lz77_init_single3)
    1 source range, total size 0x84 (76% of destination):
          0x0802f408    0x84
    1 destination range, total size 0xad:
          0x20000000    0xad



*******************************************************************************
*** MODULE SUMMARY
***

    Module                             ro code  ro data  rw data
    ------                             -------  -------  -------
D:\chemo_pump\Src\MasterMcu\build\IAR\Release\Obj: [1]
    AC.o                                             24
    adc.o                                  328       56       84
    alarm.o                              1 124       67      516
    alarm_play.o                           810                10
    app_alarm_event_handle.o               636        1        1
    app_alternative_popup.o                676       60
    app_check_last_infuse.o                296
    app_cmd.o                            8 872   10 394      131
    app_common.o                         1 212       72       77
    app_delivery.o                       5 628      676      200
    app_history_log.o                      544       60      132
    app_home.o                           1 312      212       22
    app_infusion_event_handle.o          1 152
    app_infusion_monitor.o               2 600      504    1 380
    app_key_event_handle.o                 276
    app_main_menu.o                      1 404      100
    app_mcu_comm.o                       1 156      228       84
    app_mcu_monitor.o                      336      115        8
    app_motor_monitor.o                     32
    app_msg_handle.o                     1 240      212
    app_operation_log.o                    544       60      132
    app_popup.o                            822      120
    app_scr_alarm.o                      1 004      148        1
    app_scr_change_oled_brightness.o       500       72
    app_scr_change_password.o              924      120
    app_scr_event_handle.o                 652        4
    app_scr_manual_clear_air.o             872       88        1
    app_scr_set_date.o                   1 880       86        8
    app_scr_set_infusion_duration.o      1 820      183        8
    app_scr_set_infusion_speed.o         1 376      180        5
    app_scr_set_max_clean_tube_dose.o      488       36
    app_scr_set_peek_mode_duration.o       668      183        4
    app_scr_set_peek_mode_speed.o          968      160        4
    app_scr_set_time.o                   1 172       80        8
    app_scr_set_total_dose.o               464       84
    app_scr_set_year.o                     436       20
    app_scr_task_confirm.o               2 132      192
    app_set_menu.o                       1 040       88
    app_sleep.o                            436                 1
    app_startup_and_post.o                 434
    app_system_monitor.o                   680       62       21
    battery_AC.o                                     48
    battery_empty.o                                  48
    battery_full.o                                   48
    battery_no.o                                     48
    battery_one.o                                    48
    battery_three.o                                  48
    battery_two.o                                    48
    com.o                                  220                48
    common.o                                40       91       40
    cpu_usage.o                            452       48       24
    data.o                               2 100      392      840
    dengxian_regular_14.o                         9 432
    dev_def.o                                2
    display.o                              688             8 202
    do_before_main_loop.o                  244
    drv_com.o                              602       16      516
    drv_infusion_motor.o                   308                 4
    drv_interrupt.o                        596                 1
    drv_isd2360.o                          800        1       16
    drv_key.o                               88       40
    drv_lowpower.o                       1 924       60        3
    drv_oled.o                           1 436        1       18
    drv_rtc.o                            1 120                28
    drv_sst25_flash.o                    1 376       33       40
    drv_stf_motor.o                        644                 8
    dtimer.o                                68                56
    error.o                                         180
    event.o                                 92                96
    exhaust.o                                       184
    exhaust_pause.o                                   8
    exhaust_run.o                                     8
    flush_max_dose_selected.o                       200
    flush_max_dose_unselected.o                     200
    font_data.o                            120       84        4
    gpio.o                                 680
    heiti_regular_60.o                            3 484
    heiti_regular_88.o                            6 980
    history_log.o                                   184
    image_data.o                            28      516
    info_select.o                                   200
    info_unselect.o                                 200
    infusion_motor.o                     1 802      458       83
    infusion_pause.o                                 32
    infusion_run.o                                   32
    infusion_stop.o                                  32
    init.o                                 380
    key.o                                1 864               210
    led.o                                  380                 6
    left_arrow.o                                      8
    lock.o                                           12
    logo.o                                          444
    main.o                                 224       56
    main_run.o                             182
    mid_adc.o                              358       56
    mid_common.o                           112        1        3
    mid_rtc.o                              512       32       24
    mode_selected.o                                 200
    mode_unselected.o                               200
    msg.o                                  264        3      368
    mute.o                                           32
    mute_small.o                                     20
    new_task.o                                      184
    param.o                                820    1 229       21
    peak_set_select.o                               200
    peak_set_unselect.o                             200
    pill_box_install_detect.o              152
    pressure_bubble_sensor.o                90                 1
    record_log.o                         1 076        8      113
    record_log_text.o                      438       32
    right_arrow.o                                     8
    run_test_after_main.o                    2
    scr_battery_calibration.o              488      132        4
    scr_clean_tube.o                       488
    scr_factory_mode.o                     980      138
    scr_layout.o                           192       92
    scr_new_pressure_calibration.o       1 712      384      189
    scr_password_popup.o                 1 072       72        4
    scr_precision_calibration.o          1 120      140       37
    scr_precision_factor.o                 520       20
    scr_pressure_threshold.o               488       20
    scr_set_clean_tube_dose.o              616       36        4
    scr_sleep.o                            272        2        1
    scr_tip_popup.o                        588       76
    scr_unlock_tip.o                       324       52
    screen.o                             1 850      247      840
    select_1.o                                      480
    select_2.o                                      480
    selected_pointer.o                                8
    set_arrow.o                                      16
    simple_alloc.o                         188                80
    simple_alloc_config.o                   76       48      352
    sound_pause.o                                    32
    spi.o                                  636       56      264
    ssz_algorithm.o                         56    1 024
    ssz_block_file.o                       940
    ssz_common.o                           192             4 614
    ssz_config.o                            96       16        4
    ssz_deque.o                          1 036
    ssz_file.o                             330
    ssz_gpio.o                              40
    ssz_list.o                           1 074
    ssz_locale.o                            28                 2
    ssz_nvram.o                          1 306
    ssz_precision_tick_time.o              160
    ssz_queue.o                             56
    ssz_record.o                         1 600
    ssz_safe_queue.o                       188
    ssz_sim_i2c.o                        1 084       24
    ssz_spi.o                              176       20
    ssz_stm32_hal_bsp.o                    544
    ssz_stop_watch.o                       368       52
    ssz_str_utility.o                      560
    ssz_tick_time.o                        266                32
    ssz_time.o                             176       28       28
    ssz_time_utility.o                     872       12
    ssz_timer.o                            198
    ssz_ui_config.o                         40
    ssz_ui_view_config.o                   320      160    3 052
    ssz_utility.o                          128
    ssz_vector.o                           232
    startup_stm32l152xc.o                  496
    stm32l1xx_hal.o                        104                 4
    stm32l1xx_hal_adc.o                  1 740
    stm32l1xx_hal_cortex.o                 368
    stm32l1xx_hal_gpio.o                   824
    stm32l1xx_hal_msp.o                    176
    stm32l1xx_hal_pwr.o                     76
    stm32l1xx_hal_pwr_ex.o                  40
    stm32l1xx_hal_rcc.o                  3 436
    stm32l1xx_hal_spi.o                  2 156
    stm32l1xx_hal_spi_ex.o                 140
    stm32l1xx_hal_tim.o                  1 744
    stm32l1xx_hal_tim_ex.o                  88
    stm32l1xx_hal_uart.o                 2 024
    stm32l1xx_it.o                         204
    stop_infusion.o                                 184
    stop_watch.o                           148               429
    string_data.o                          168    4 521      388
    sys_power.o                            338
    system_setting.o                                184
    system_stm32l1xx.o                     320       39        4
    three_valve_motor.o                  2 092      406       64
    tim.o                                1 036       56      224
    time_select.o                                   200
    time_unselect.o                                 200
    timer.o                                384               736
    ui_common.o                            696
    ui_disp_text.o                         884
    ui_draw.o                            1 664       75      278
    ui_draw_base.o                          40
    ui_draw_img.o                          216
    ui_image.o                             444       24
    ui_image_list.o                        324       44
    ui_lable.o                             174       24
    ui_list_base.o                       1 300       44
    ui_list_pos_indicator.o                354       32
    ui_normal_list_base.o                  130       44
    ui_number_edit.o                       732       56
    ui_page_control.o                      434       44
    ui_progress_bar.o                      258       24
    ui_statusbar.o                       1 044       56
    ui_text_base.o                         202       24
    ui_text_list.o                         364       44
    ui_utility.o                           510
    ui_view.o                            3 280       56      683
    ui_window.o                            120       24
    unselected_pointer.o                              1
    usart.o                                620       56      192
    version.o                               60      105       16
    vibrater_motor.o                        76                 1
    voice.o                                288                 1
    warning.o                                       180
    warning_common.o                                180
    write.o                                 52
    ------------------------------------------------------------
    Total:                             127 274   51 898   26 138

command line: [2]
    ------------------------------------------------------------
    Total:

dl7M_tln.a: [3]
    abort.o                                  6
    atoi.o                                   8
    div.o                                   14
    dlmalloc.o                           5 360               496
    errno.o                                 12        3        4
    exit.o                                   4
    isdigit.o                               10
    low_level_init.o                         4
    printf.o                                36
    putchar.o                               40
    puts.o                                  53
    snprintf.o                              68
    sprintf.o                               52
    strncat.o                               40
    strncmp.o                               40
    xgetmemchunk.o                          44                 4
    xprintffull_nomb.o                   3 502
    xprout.o                                22
    xpurevirtual.o                           4
    xsnprout.o                              26
    xsprout.o                               10
    xstoul.o                               412
    xtls.o                                   2
    ------------------------------------------------------------
    Total:                               9 769        3      504

m7M_tl.a: [4]
    DblAdd.o                               232
    DblCmpGe.o                              46
    DblCmpLe.o                              46
    DblDiv.o                               598
    DblMul.o                               418
    DblSub.o                               384
    DblToFlt.o                             144
    DblToI32.o                              88
    FltAdd.o                               132
    FltCmpGe.o                              36
    FltCmpLe.o                              36
    FltDiv.o                               252
    FltMul.o                               216
    FltSub.o                               230
    FltToDbl.o                              78
    FltToS32.o                              68
    I32ToDbl.o                              48
    I32ToFlt.o                              46
    xdnorm.o                                66
    xdscale.o                              268
    ------------------------------------------------------------
    Total:                               3 432

rt7M_tl.a: [5]
    ABImemclr4.o                             6
    ABImemcpy_unaligned.o                  118
    ABImemset.o                            102
    ABImemset48.o                           50
    I64DivMod.o                            238
    I64DivZer.o                              2
    XXexit.o                                12
    cexit.o                                 10
    cmain.o                                 26
    cstartup_M.o                            12
    data_init.o                             40
    lz77_init_single.o                     118
    memchr.o                                88
    memcmp_unaligned.o                      98
    strchr.o                                22
    strcmp_unaligned.o                      66
    strcpy_unaligned.o                      68
    strlen.o                                54
    zero_init3.o                            64
    ------------------------------------------------------------
    Total:                               1 194

    Gaps                                    68        6
    Linker created                                   32    5 120
----------------------------------------------------------------
    Grand Total:                       141 737   51 939   31 762


*******************************************************************************
*** ENTRY LIST
***

Entry                      Address    Size  Type      Object
-----                      -------    ----  ----      ------
.iar.init_table$$Base   0x0802ae28           --   Gb  - Linker created -
.iar.init_table$$Limit  0x0802ae48           --   Gb  - Linker created -
?main                   0x0802d0cd          Code  Gb  cmain.o [5]
ADC_ConversionStop_Disable
                        0x08010629    0x4a  Code  Gb  stm32l1xx_hal_adc.o [1]
ADC_Enable              0x0801058d    0x72  Code  Gb  stm32l1xx_hal_adc.o [1]
AHBPrescTable           0x0802ea54    0x10  Data  Gb  system_stm32l1xx.o [1]
APBH_Config_low_sleep   0x0800b62d    0xac  Code  Lc  drv_lowpower.o [1]
APBPrescTable           0x0802f2b4     0x8  Data  Gb  system_stm32l1xx.o [1]
BusFault_Handler        0x08026feb     0x2  Code  Gb  stm32l1xx_it.o [1]
CSTACK$$Base            0x200000b0           --   Gb  - Linker created -
CSTACK$$Limit           0x200010b0           --   Gb  - Linker created -
DebugMon_Handler        0x08026ff1     0x2  Code  Gb  stm32l1xx_it.o [1]
EXTI3_IRQHandler        0x08027001     0xa  Code  Gb  stm32l1xx_it.o [1]
EXTI9_5_IRQHandler      0x0802700b    0x20  Code  Gb  stm32l1xx_it.o [1]
HAL_ADC_ConfigChannel   0x080103c7   0x1c2  Code  Gb  stm32l1xx_hal_adc.o [1]
HAL_ADC_DeInit          0x08010167   0x128  Code  Gb  stm32l1xx_hal_adc.o [1]
HAL_ADC_GetState        0x08010589     0x4  Code  Gb  stm32l1xx_hal_adc.o [1]
HAL_ADC_GetValue        0x080103c1     0x6  Code  Gb  stm32l1xx_hal_adc.o [1]
HAL_ADC_Init            0x0800ffa9   0x1be  Code  Gb  stm32l1xx_hal_adc.o [1]
HAL_ADC_MspDeInit       0x08016ac5    0x32  Code  Gb  adc.o [1]
HAL_ADC_MspInit         0x08016a5f    0x66  Code  Gb  adc.o [1]
HAL_ADC_PollForConversion
                        0x08010311    0xb0  Code  Gb  stm32l1xx_hal_adc.o [1]
HAL_ADC_Start           0x0801028f    0x82  Code  Gb  stm32l1xx_hal_adc.o [1]
HAL_GPIO_DeInit         0x08003e59   0x11e  Code  Gb  stm32l1xx_hal_gpio.o [1]
HAL_GPIO_EXTI_Callback  0x0800ece9   0x1de  Code  Gb  drv_interrupt.o [1]
HAL_GPIO_EXTI_IRQHandler
                        0x08003f9d    0x1a  Code  Gb  stm32l1xx_hal_gpio.o [1]
HAL_GPIO_Init           0x08003cb1   0x1a8  Code  Gb  stm32l1xx_hal_gpio.o [1]
HAL_GPIO_ReadPin        0x08003f77    0x12  Code  Gb  stm32l1xx_hal_gpio.o [1]
HAL_GPIO_WritePin       0x08003f89    0x14  Code  Gb  stm32l1xx_hal_gpio.o [1]
HAL_GetTick             0x08017a07     0x6  Code  Wk  stm32l1xx_hal.o [1]
HAL_IncTick             0x080179fb     0xc  Code  Wk  stm32l1xx_hal.o [1]
HAL_Init                0x080179c1    0x16  Code  Gb  stm32l1xx_hal.o [1]
HAL_InitTick            0x080179d7    0x24  Code  Wk  stm32l1xx_hal.o [1]
HAL_MspInit             0x0801d9f1    0xb0  Code  Gb  stm32l1xx_hal_msp.o [1]
HAL_NVIC_DisableIRQ     0x0801684d     0xa  Code  Gb  stm32l1xx_hal_cortex.o [1]
HAL_NVIC_EnableIRQ      0x08016843     0xa  Code  Gb  stm32l1xx_hal_cortex.o [1]
HAL_NVIC_SetPriority    0x08016821    0x22  Code  Gb  stm32l1xx_hal_cortex.o [1]
HAL_NVIC_SetPriorityGrouping
                        0x08016819     0x8  Code  Gb  stm32l1xx_hal_cortex.o [1]
HAL_PWREx_EnableFastWakeUp
                        0x08017a75    0x12  Code  Gb  stm32l1xx_hal_pwr_ex.o [1]
HAL_PWREx_EnableUltraLowPower
                        0x08017a87    0x12  Code  Gb  stm32l1xx_hal_pwr_ex.o [1]
HAL_PWR_DisablePVD      0x08017a29    0x12  Code  Gb  stm32l1xx_hal_pwr.o [1]
HAL_PWR_EnterSLEEPMode  0x08017a3b    0x2c  Code  Gb  stm32l1xx_hal_pwr.o [1]
HAL_RCC_ClockConfig     0x08017427   0x29e  Code  Gb  stm32l1xx_hal_rcc.o [1]
HAL_RCC_DeInit          0x08016b15    0x88  Code  Gb  stm32l1xx_hal_rcc.o [1]
HAL_RCC_GetHCLKFreq     0x0801774f     0x6  Code  Gb  stm32l1xx_hal_rcc.o [1]
HAL_RCC_GetPCLK1Freq    0x08017755    0x20  Code  Gb  stm32l1xx_hal_rcc.o [1]
HAL_RCC_GetPCLK2Freq    0x0801777d    0x20  Code  Gb  stm32l1xx_hal_rcc.o [1]
HAL_RCC_GetSysClockFreq
                        0x080176c5    0x8a  Code  Gb  stm32l1xx_hal_rcc.o [1]
HAL_RCC_OscConfig       0x08016b9d   0x88a  Code  Gb  stm32l1xx_hal_rcc.o [1]
HAL_SPI_DeInit          0x0800ef55    0x32  Code  Gb  stm32l1xx_hal_spi.o [1]
HAL_SPI_Init            0x0801a5a7    0x8c  Code  Gb  stm32l1xx_hal_spi_ex.o [1]
HAL_SPI_MspDeInit       0x08011a79    0x60  Code  Gb  spi.o [1]
HAL_SPI_MspInit         0x080119b5    0xc4  Code  Gb  spi.o [1]
HAL_SPI_Receive         0x0800f14f   0x230  Code  Gb  stm32l1xx_hal_spi.o [1]
HAL_SPI_Transmit        0x0800ef87   0x1c8  Code  Gb  stm32l1xx_hal_spi.o [1]
HAL_SPI_TransmitReceive
                        0x0800f37f   0x352  Code  Gb  stm32l1xx_hal_spi.o [1]
HAL_SYSTICK_CLKSourceConfig
                        0x0801685f    0x20  Code  Gb  stm32l1xx_hal_cortex.o [1]
HAL_SYSTICK_Callback    0x0800ecd9    0x10  Code  Gb  drv_interrupt.o [1]
HAL_SYSTICK_Config      0x08016857     0x8  Code  Gb  stm32l1xx_hal_cortex.o [1]
HAL_SYSTICK_IRQHandler  0x080168a5     0x8  Code  Gb  stm32l1xx_hal_cortex.o [1]
HAL_SuspendTick         0x08017a0d     0xe  Code  Wk  stm32l1xx_hal.o [1]
HAL_TIMEx_MasterConfigSynchronization
                        0x08019d1d    0x58  Code  Gb  stm32l1xx_hal_tim_ex.o [1]
HAL_TIM_Base_DeInit     0x0800c3dd    0x38  Code  Gb  stm32l1xx_hal_tim.o [1]
HAL_TIM_Base_Init       0x0800c3a5    0x38  Code  Gb  stm32l1xx_hal_tim.o [1]
HAL_TIM_Base_MspDeInit  0x0800c05d    0x1e  Code  Gb  tim.o [1]
HAL_TIM_Base_MspInit    0x0800c021    0x3c  Code  Gb  tim.o [1]
HAL_TIM_Base_Start_IT   0x0800c415    0x1c  Code  Gb  stm32l1xx_hal_tim.o [1]
HAL_TIM_Base_Stop_IT    0x0800c431    0x28  Code  Gb  stm32l1xx_hal_tim.o [1]
HAL_TIM_ConfigClockSource
                        0x0800c749   0x118  Code  Gb  stm32l1xx_hal_tim.o [1]
HAL_TIM_IC_CaptureCallback
                        0x0800c863     0x2  Code  Wk  stm32l1xx_hal_tim.o [1]
HAL_TIM_IRQHandler      0x0800c513   0x13a  Code  Gb  stm32l1xx_hal_tim.o [1]
HAL_TIM_MspPostInit     0x0800c0f1    0x78  Code  Gb  tim.o [1]
HAL_TIM_OC_DelayElapsedCallback
                        0x0800c861     0x2  Code  Wk  stm32l1xx_hal_tim.o [1]
HAL_TIM_PWM_ConfigChannel
                        0x0800c64d    0xfc  Code  Gb  stm32l1xx_hal_tim.o [1]
HAL_TIM_PWM_DeInit      0x0800c491    0x38  Code  Gb  stm32l1xx_hal_tim.o [1]
HAL_TIM_PWM_Init        0x0800c459    0x38  Code  Gb  stm32l1xx_hal_tim.o [1]
HAL_TIM_PWM_MspDeInit   0x0800c169    0x42  Code  Gb  tim.o [1]
HAL_TIM_PWM_MspInit     0x0800c305    0x6a  Code  Gb  tim.o [1]
HAL_TIM_PWM_PulseFinishedCallback
                        0x0800c865     0x2  Code  Wk  stm32l1xx_hal_tim.o [1]
HAL_TIM_PWM_Start       0x0800c4c9    0x1c  Code  Gb  stm32l1xx_hal_tim.o [1]
HAL_TIM_PWM_Stop        0x0800c4e5    0x2e  Code  Gb  stm32l1xx_hal_tim.o [1]
HAL_TIM_PeriodElapsedCallback
                        0x0800eec7     0xe  Code  Gb  drv_interrupt.o [1]
HAL_TIM_TriggerCallback
                        0x0800c867     0x2  Code  Wk  stm32l1xx_hal_tim.o [1]
HAL_UART_DeInit         0x0800f831    0x4a  Code  Gb  stm32l1xx_hal_uart.o [1]
HAL_UART_ErrorCallback  0x080181fd     0xe  Code  Gb  drv_com.o [1]
HAL_UART_IRQHandler     0x0800f965   0x102  Code  Gb  stm32l1xx_hal_uart.o [1]
HAL_UART_Init           0x0800f7c1    0x70  Code  Gb  stm32l1xx_hal_uart.o [1]
HAL_UART_MspDeInit      0x08017f11    0x72  Code  Gb  usart.o [1]
HAL_UART_MspInit        0x08017e1d    0xf4  Code  Gb  usart.o [1]
HAL_UART_RxCpltCallback
                        0x0800fa69     0x2  Code  Wk  stm32l1xx_hal_uart.o [1]
HAL_UART_Transmit       0x0800f87b    0xea  Code  Gb  stm32l1xx_hal_uart.o [1]
HAL_UART_TxCpltCallback
                        0x0800fa67     0x2  Code  Wk  stm32l1xx_hal_uart.o [1]
HEAP$$Base              0x200010b0           --   Gb  - Linker created -
HEAP$$Limit             0x200014b0           --   Gb  - Linker created -
HardFault_Handler       0x08026fe7     0x2  Code  Gb  stm32l1xx_it.o [1]
LoadInt                 0x0800d775    0x6e  Code  Lc  xprintffull_nomb.o [3]
MX_ADC_Init             0x080169cd    0x92  Code  Gb  adc.o [1]
MX_GPIO_Init            0x08017a9d   0x2a8  Code  Gb  gpio.o [1]
MX_SPI1_Init            0x0801188d    0x62  Code  Gb  spi.o [1]
MX_SPI2_Init            0x080118ef    0x64  Code  Gb  spi.o [1]
MX_SPI3_Init            0x08011953    0x62  Code  Gb  spi.o [1]
MX_TIM10_Init           0x0800c231    0x6a  Code  Gb  tim.o [1]
MX_TIM11_Init           0x0800c29b    0x6a  Code  Gb  tim.o [1]
MX_TIM3_Init_ex         0x0800c1ab    0x86  Code  Gb  tim.o [1]
MX_TIM5_Init            0x0800bf99    0x88  Code  Gb  tim.o [1]
MX_TIM5_Init_ex         0x0800c07b    0x76  Code  Gb  tim.o [1]
MX_USART1_UART_Init     0x08017d45    0x48  Code  Gb  usart.o [1]
MX_USART2_UART_Init     0x08017d8d    0x48  Code  Gb  usart.o [1]
MX_USART3_UART_Init     0x08017dd5    0x48  Code  Gb  usart.o [1]
MemManage_Handler       0x08026fe9     0x2  Code  Gb  stm32l1xx_it.o [1]
NMI_Handler             0x08026fe5     0x2  Code  Gb  stm32l1xx_it.o [1]
NVIC_DisableIRQ         0x0800afc9    0x16  Code  Lc  drv_lowpower.o [1]
NVIC_DisableIRQ         0x08016777    0x14  Code  Lc  stm32l1xx_hal_cortex.o [1]
NVIC_EnableIRQ          0x08016763    0x14  Code  Lc  stm32l1xx_hal_cortex.o [1]
NVIC_EncodePriority     0x080167ad    0x3e  Code  Lc  stm32l1xx_hal_cortex.o [1]
NVIC_GetPriorityGrouping
                        0x08016759     0xa  Code  Lc  stm32l1xx_hal_cortex.o [1]
NVIC_SetPriority        0x0801678b    0x22  Code  Lc  stm32l1xx_hal_cortex.o [1]
NVIC_SetPriorityGrouping
                        0x0801673d    0x1c  Code  Lc  stm32l1xx_hal_cortex.o [1]
NVIC_SystemReset()      0x08014fb1    0x22  Code  Lc  scr_factory_mode.o [1]
PLLMulTable             0x0802eec0     0xc  Data  Gb  system_stm32l1xx.o [1]
PendSV_Handler          0x08026ff3     0x2  Code  Gb  stm32l1xx_it.o [1]
RCC_SetFlashLatencyFromMSIRange
                        0x080177bd    0x90  Code  Lc  stm32l1xx_hal_rcc.o [1]
Region$$Table$$Base     0x0802ae28           --   Gb  - Linker created -
Region$$Table$$Limit    0x0802ae48           --   Gb  - Linker created -
SPI_WaitOnFlagUntilTimeout
                        0x0800f6d1    0xf0  Code  Lc  stm32l1xx_hal_spi.o [1]
SVC_Handler             0x08026fef     0x2  Code  Gb  stm32l1xx_it.o [1]
SysTick_Config          0x080167eb    0x2e  Code  Lc  stm32l1xx_hal_cortex.o [1]
SysTick_Handler         0x08026ff5     0xc  Code  Gb  stm32l1xx_it.o [1]
SystemClock_Config      0x080106a9    0x9a  Code  Gb  main.o [1]
SystemCoreClock         0x20000080     0x4  Data  Gb  system_stm32l1xx.o [1]
SystemCoreClockUpdate   0x080178cd    0xc4  Code  Gb  system_stm32l1xx.o [1]
SystemInit              0x08017881    0x4c  Code  Gb  system_stm32l1xx.o [1]
TIM5_IRQHandler         0x08027097     0xa  Code  Gb  stm32l1xx_it.o [1]
TIM_Base_SetConfig      0x0800c869    0x6c  Code  Lc  stm32l1xx_hal_tim.o [1]
TIM_CCxChannelCmd       0x0800ca57    0x1e  Code  Lc  stm32l1xx_hal_tim.o [1]
TIM_ETR_SetConfig       0x0800ca3f    0x18  Code  Lc  stm32l1xx_hal_tim.o [1]
TIM_ITRx_SetConfig      0x0800ca2b    0x14  Code  Lc  stm32l1xx_hal_tim.o [1]
TIM_OC1_SetConfig       0x0800c8d5    0x38  Code  Lc  stm32l1xx_hal_tim.o [1]
TIM_OC2_SetConfig       0x0800c90d    0x3c  Code  Lc  stm32l1xx_hal_tim.o [1]
TIM_OC3_SetConfig       0x0800c949    0x3a  Code  Lc  stm32l1xx_hal_tim.o [1]
TIM_OC4_SetConfig       0x0800c983    0x3c  Code  Lc  stm32l1xx_hal_tim.o [1]
TIM_TI1_ConfigInputStage
                        0x0800c9d9    0x28  Code  Lc  stm32l1xx_hal_tim.o [1]
TIM_TI2_ConfigInputStage
                        0x0800ca01    0x2a  Code  Lc  stm32l1xx_hal_tim.o [1]
UART_EndTransmit_IT     0x0800fbbb    0x2c  Code  Lc  stm32l1xx_hal_uart.o [1]
UART_Receive_IT         0x0800fbe7    0xbc  Code  Lc  stm32l1xx_hal_uart.o [1]
UART_SetConfig          0x0800fca3   0x2fc  Code  Lc  stm32l1xx_hal_uart.o [1]
UART_Transmit_IT        0x0800fb4b    0x70  Code  Lc  stm32l1xx_hal_uart.o [1]
UART_WaitOnFlagUntilTimeout
                        0x0800fa6b    0xe0  Code  Lc  stm32l1xx_hal_uart.o [1]
UIDrawBase::UIDrawBase()
                        0x0801ae65     0x6  Code  Gb  ui_draw_base.o [1]
UIDrawBase::UIDrawBase() [subobject]
                        0x0801ae5d     0x8  Code  Gb  ui_draw_base.o [1]
UIDrawBase::set_bk_color(unsigned int)
                        0x0801ae6b    0x10  Code  Gb  ui_draw_base.o [1]
UIDrawBase::set_draw_attributes()
                        0x0801ae7b     0xa  Code  Gb  ui_draw_base.o [1]
UIImage::UIImage()      0x0801a635    0x2e  Code  Gb  ui_image.o [1]
UIImage::disable_blink()
                        0x0801a767    0x26  Code  Gb  ui_image.o [1]
UIImage::enable_blink()
                        0x0801a749    0x1e  Code  Gb  ui_image.o [1]
UIImage::on_draw()      0x0801a669    0x38  Code  Gb  ui_image.o [1]
UIImage::on_msg(UIMsg &)
                        0x0801a6a1    0x60  Code  Gb  ui_image.o [1]
UIImage::set_auto_size(bool)
                        0x0801a78d    0x22  Code  Gb  ui_image.o [1]
UIImage::set_img(Image const *)
                        0x0801a701    0x48  Code  Gb  ui_image.o [1]
UIImage::set_reverse(bool)
                        0x0801a7af    0x42  Code  Gb  ui_image.o [1]
UIImageList::UIImageList()
                        0x08014571    0x22  Code  Gb  ui_image_list.o [1]
UIImageList::draw_item(UIListItemDrawInfo const &)
                        0x080145bf    0xb2  Code  Gb  ui_image_list.o [1]
UIImageList::on_msg(UIMsg &)
                        0x08014599    0x26  Code  Gb  ui_image_list.o [1]
UIImageList::push_back(Image const *, Image const *)
                        0x08014671    0x44  Code  Gb  ui_image_list.o [1]
UILable::UILable()      0x0801b491    0x16  Code  Gb  ui_lable.o [1]
UILable::on_draw()      0x0801b4ad    0x28  Code  Gb  ui_lable.o [1]
UILable::on_msg(UIMsg &)
                        0x0801b4d5    0x38  Code  Gb  ui_lable.o [1]
UILable::set_text(char const *)
                        0x0801b50d    0x1c  Code  Gb  ui_lable.o [1]
UILable::set_text_and_force_invalid(char const *)
                        0x0801b529    0x16  Code  Gb  ui_lable.o [1]
UIListBase::UIListBase()
                        0x080134a1    0x6e  Code  Gb  ui_list_base.o [1]
UIListBase::UIListBase() [subobject]
                        0x08013499     0x8  Code  Gb  ui_list_base.o [1]
UIListBase::backup_context(unsigned char *, int)
                        0x0801364d    0x2e  Code  Gb  ui_list_base.o [1]
UIListBase::context_size()
                        0x0802f3f5     0x4  Code  Gb  ui_text_list.o [1]
UIListBase::get_selected()
                        0x08013745     0x4  Code  Gb  ui_list_base.o [1]
UIListBase::invalidate_item(int)
                        0x08013919    0x3e  Code  Gb  ui_list_base.o [1]
UIListBase::is_index_valid(int)
                        0x08013993    0x1a  Code  Gb  ui_list_base.o [1]
UIListBase::is_item_disabled(int)
                        0x080138cd    0x12  Code  Gb  ui_list_base.o [1]
UIListBase::is_item_visible(int)
                        0x08013957    0x3c  Code  Gb  ui_list_base.o [1]
UIListBase::item_rect_at_list(int, Rect *)
                        0x080136b5    0x90  Code  Gb  ui_list_base.o [1]
UIListBase::on_draw()   0x08013515    0xe6  Code  Gb  ui_list_base.o [1]
UIListBase::on_msg_default(UIMsg &)
                        0x080135fb    0x52  Code  Gb  ui_list_base.o [1]
UIListBase::restore_context(unsigned char *, int)
                        0x0801367b    0x3a  Code  Gb  ui_list_base.o [1]
UIListBase::select(int)
                        0x08013749    0xac  Code  Gb  ui_list_base.o [1]
UIListBase::select_if_no_select(int)
                        0x08013869     0xe  Code  Gb  ui_list_base.o [1]
UIListBase::select_next()
                        0x080137f5    0x3a  Code  Gb  ui_list_base.o [1]
UIListBase::select_prev()
                        0x0801382f    0x3a  Code  Gb  ui_list_base.o [1]
UIListBase::set_item_align(unsigned char)
                        0x08013903    0x16  Code  Gb  ui_list_base.o [1]
UIListBase::set_item_bk_color(UIListItemState, unsigned int)
                        0x080138df    0x10  Code  Gb  ui_list_base.o [1]
UIListBase::set_item_height(int)
                        0x080138ef     0xa  Code  Gb  ui_list_base.o [1]
UIListBase::set_item_select_state(int, bool)
                        0x08013883    0x4a  Code  Gb  ui_list_base.o [1]
UIListBase::set_item_width(int)
                        0x080138f9     0xa  Code  Gb  ui_list_base.o [1]
UIListBase::set_layout_orientation(UIOrientation)
                        0x08013877     0xc  Code  Gb  ui_list_base.o [1]
UIListPosIndicator::UIListPosIndicator()
                        0x0801bdf9    0x1a  Code  Gb  ui_list_pos_indicator.o [1]
UIListPosIndicator::on_draw()
                        0x0801be13    0xd0  Code  Gb  ui_list_pos_indicator.o [1]
UIListPosIndicator::on_msg(UIMsg &)
                        0x0801beed    0x26  Code  Gb  ui_list_pos_indicator.o [1]
UIListPosIndicator::set_max_value(int)
                        0x0801bf13    0x16  Code  Gb  ui_list_pos_indicator.o [1]
UIListPosIndicator::set_value(int)
                        0x0801bf29    0x32  Code  Gb  ui_list_pos_indicator.o [1]
UINormalListBase::UINormalListBase()
                        0x0801f0ed    0x18  Code  Gb  ui_text_list.o [1]
UINormalListBase::UINormalListBase() [subobject]
                        0x0801bf5b     0x8  Code  Gb  ui_text_list.o [1]
UINormalListBase::item_draw_info(UIListItemDrawInfo *)
                        0x0802856d    0x1a  Code  Gb  ui_normal_list_base.o [1]
UINormalListBase::item_status(int)
                        0x0802850f    0x28  Code  Gb  ui_normal_list_base.o [1]
UINormalListBase::set_item_status(int, unsigned char)
                        0x08028537    0x36  Code  Gb  ui_normal_list_base.o [1]
UINormalListBase::size()
                        0x08028505     0xa  Code  Gb  ui_normal_list_base.o [1]
UINumberEdit::UINumberEdit()
                        0x0801b1b9    0x52  Code  Gb  ui_number_edit.o [1]
UINumberEdit::backup_context(unsigned char *, int)
                        0x0801b357    0x2c  Code  Gb  ui_number_edit.o [1]
UINumberEdit::context_size()
                        0x0802f3f1     0x4  Code  Gb  ui_number_edit.o [1]
UINumberEdit::decrease_one_step()
                        0x0801b459    0x38  Code  Gb  ui_number_edit.o [1]
UINumberEdit::increase_one_step()
                        0x0801b421    0x38  Code  Gb  ui_number_edit.o [1]
UINumberEdit::init(int, int, int, int)
                        0x0801b3c3    0x3c  Code  Gb  ui_number_edit.o [1]
UINumberEdit::on_draw()
                        0x0801b20b    0xe8  Code  Gb  ui_number_edit.o [1]
UINumberEdit::on_msg(UIMsg &)
                        0x0801b309    0x4e  Code  Gb  ui_number_edit.o [1]
UINumberEdit::restore_context(unsigned char *, int)
                        0x0801b383    0x34  Code  Gb  ui_number_edit.o [1]
UINumberEdit::set_show_all_digit_state(bool)
                        0x0801b3b7     0xc  Code  Gb  ui_number_edit.o [1]
UINumberEdit::set_value(int)
                        0x0801b3ff    0x22  Code  Gb  ui_number_edit.o [1]
UINumberEdit::value()   0x0801af4f     0x4  Code  Gb  scr_set_clean_tube_dose.o [1]
UIPageControl::UIPageControl()
                        0x080146b5    0x3e  Code  Gb  ui_page_control.o [1]
UIPageControl::draw_item(UIListItemDrawInfo const &)
                        0x08014745    0xb2  Code  Gb  ui_page_control.o [1]
UIPageControl::item_draw_info(UIListItemDrawInfo *)
                        0x08014731    0x14  Code  Gb  ui_page_control.o [1]
UIPageControl::item_status(int)
                        0x08014723     0xe  Code  Gb  ui_page_control.o [1]
UIPageControl::on_msg(UIMsg &)
                        0x080146f9    0x26  Code  Gb  ui_page_control.o [1]
UIPageControl::set_item_status(int, unsigned char)
                        0x080045d7     0x2  Code  Gb  ui_page_control.o [1]
UIPageControl::set_size(int)
                        0x080147f7    0x6e  Code  Gb  ui_page_control.o [1]
UIPageControl::size()   0x0801471f     0x4  Code  Gb  ui_page_control.o [1]
UIProgressBar::UIProgressBar()
                        0x0801a7f1    0x24  Code  Gb  ui_progress_bar.o [1]
UIProgressBar::on_draw()
                        0x0801a819    0x6c  Code  Gb  ui_progress_bar.o [1]
UIProgressBar::on_msg(UIMsg &)
                        0x0801a885    0x26  Code  Gb  ui_progress_bar.o [1]
UIProgressBar::set_max_value(int)
                        0x0801a8ab    0x16  Code  Gb  ui_progress_bar.o [1]
UIProgressBar::set_value(int)
                        0x0801a8c1    0x32  Code  Gb  ui_progress_bar.o [1]
UIStatusbar::UIStatusbar()
                        0x0801563d    0x2e  Code  Gb  ui_statusbar.o [1]
UIStatusbar::hide_icon(StatusbarIconOrderID)
                        0x080158dd     0xe  Code  Gb  ui_statusbar.o [1]
UIStatusbar::on_create()
                        0x0801566b    0xe2  Code  Gb  ui_statusbar.o [1]
UIStatusbar::on_draw()  0x0801574d     0xc  Code  Gb  ui_statusbar.o [1]
UIStatusbar::on_msg(UIMsg &)
                        0x080157b7    0x50  Code  Gb  ui_statusbar.o [1]
UIStatusbar::on_size_change()
                        0x08015759    0x5e  Code  Gb  ui_statusbar.o [1]
UIStatusbar::set_battery(bool, bool, BatteryLevel)
                        0x08015893    0x3e  Code  Gb  ui_statusbar.o [1]
UIStatusbar::set_icon(StatusbarIconOrderID, Image const *, bool)
                        0x080158eb    0xee  Code  Gb  ui_statusbar.o [1]
UIStatusbar::set_time(SszDateTime const *)
                        0x0801583d    0x56  Code  Gb  ui_statusbar.o [1]
UIStatusbar::set_title(char const *)
                        0x08015807    0x36  Code  Gb  ui_statusbar.o [1]
UIStatusbar::show_icon(StatusbarIconOrderID, Image const *)
                        0x080158d1     0xc  Code  Gb  ui_statusbar.o [1]
UIStatusbar::update_icons()
                        0x080159d9    0x64  Code  Gb  ui_statusbar.o [1]
UITextBase::UITextBase()
                        0x0801ae8d    0x28  Code  Gb  ui_text_base.o [1]
UITextBase::UITextBase() [subobject]
                        0x0801ae85     0x8  Code  Gb  ui_text_base.o [1]
UITextBase::on_msg_default(UIMsg &)
                        0x0801aeb9    0x48  Code  Gb  ui_text_base.o [1]
UITextBase::set_draw_attributes()
                        0x0801af31    0x1e  Code  Gb  ui_text_base.o [1]
UITextBase::set_font(Font const *)
                        0x0801af21    0x10  Code  Gb  ui_text_base.o [1]
UITextBase::set_text_color(unsigned int)
                        0x0801af11    0x10  Code  Gb  ui_text_base.o [1]
UITextBase::set_text_mode(int)
                        0x0801af01    0x10  Code  Gb  ui_text_base.o [1]
UITextList::UITextList()
                        0x0801440d    0x44  Code  Gb  ui_text_list.o [1]
UITextList::draw_item(UIListItemDrawInfo const &)
                        0x0801447b    0x56  Code  Gb  ui_text_list.o [1]
UITextList::on_msg(UIMsg &)
                        0x08014455    0x26  Code  Gb  ui_text_list.o [1]
UITextList::push_back(char const *)
                        0x080144d1    0x40  Code  Gb  ui_text_list.o [1]
UITextList::set_text(int, char const *)
                        0x08014511    0x32  Code  Gb  ui_text_list.o [1]
UITextList::set_text_color(UIListItemState, unsigned int)
                        0x08014543    0x12  Code  Gb  ui_text_list.o [1]
UIView::add_child(UIView*)
                        0x08012877    0xa0  Code  Gb  ui_view.o [1]
UIView::area(Rect *)    0x08012a97    0x2e  Code  Gb  ui_view.o [1]
UIView::area_at_screen(Rect *)
                        0x08012adf    0x10  Code  Gb  ui_view.o [1]
UIView::area_self(Rect *)
                        0x08012ac5    0x1a  Code  Gb  ui_view.o [1]
UIView::backup_context(unsigned char *, int)
                        0x0802f3fd     0x4  Code  Gb  ui_window.o [1]
UIView::backup_context_with_descendant(unsigned char *, int, int *)
                        0x08012bbf    0x68  Code  Gb  ui_view.o [1]
UIView::context_size()  0x0802f3f9     0x4  Code  Gb  ui_window.o [1]
UIView::context_size_with_descendant()
                        0x08012b9b    0x24  Code  Gb  ui_view.o [1]
UIView::detach_from_parent()
                        0x08012805    0x72  Code  Gb  ui_view.o [1]
UIView::dirty_rect(Rect *)
                        0x08012f0d    0x26  Code  Gb  ui_view.o [1]
UIView::dirty_rect_at_screen(Rect *)
                        0x0801b763    0x12  Code  Gb  ui_view.o [1]
UIView::draw()          0x08012d97    0xf2  Code  Gb  ui_view.o [1]
UIView::enable_accept_focus()
                        0x08012987     0xa  Code  Gb  ui_view.o [1]
UIView::first_child()   0x0801b775     0x4  Code  Gb  ui_view.o [1]
UIView::force_draw_after_draw_all()
                        0x08012e89    0x1e  Code  Gb  ui_view.o [1]
UIView::get_child(int)  0x08012aef    0x16  Code  Gb  ui_view.o [1]
UIView::get_descendant(int)
                        0x08012b05    0x2a  Code  Gb  ui_view.o [1]
UIView::hide()          0x08012d57    0x2a  Code  Gb  ui_view.o [1]
UIView::id()            0x08014fad     0x4  Code  Gb  ui_view.o [1]
UIView::invalidate()    0x080129e7    0x1c  Code  Gb  ui_view.o [1]
UIView::invalidate_by_rect(Rect const &)
                        0x08012a03    0x1c  Code  Gb  ui_view.o [1]
UIView::invalidate_self()
                        0x08012c8f    0x38  Code  Gb  ui_view.o [1]
UIView::invalidate_self_by_rect(Rect const &)
                        0x08012cc7    0x90  Code  Gb  ui_view.o [1]
UIView::invalidate_self_by_rect_at_screen(Rect const &)
                        0x08012a1f    0x78  Code  Gb  ui_view.o [1]
UIView::is_dirty()      0x08012efb    0x12  Code  Gb  ui_view.o [1]
UIView::is_enable()     0x08012ea7     0xe  Code  Gb  ui_view.o [1]
UIView::is_enable_focused()
                        0x08012eed     0xe  Code  Gb  ui_view.o [1]
UIView::is_focused()    0x08012ed9    0x14  Code  Gb  ui_view.o [1]
UIView::is_self_and_all_parent_visible()
                        0x08012eb5    0x16  Code  Gb  ui_view.o [1]
UIView::is_visible()    0x08012ecb     0xe  Code  Gb  ui_view.o [1]
UIView::last_descendant()
                        0x08012b2f    0x1c  Code  Gb  ui_view.o [1]
UIView::move_but_no_invalidate(int, int)
                        0x0801301d    0x34  Code  Gb  ui_view.o [1]
UIView::next_sibling()  0x0801b779     0x4  Code  Gb  ui_view.o [1]
UIView::notify_parent(int)
                        0x08012b87    0x14  Code  Gb  ui_view.o [1]
UIView::on_msg_default(UIMsg &)
                        0x08012b85     0x2  Code  Gb  ui_view.o [1]
UIView::parent()        0x0801b55b     0x4  Code  Gb  ui_view.o [1]
UIView::real_dirty_rect_at_screen(Rect *)
                        0x08012f33    0x2c  Code  Gb  ui_view.o [1]
UIView::restore_context(unsigned char *, int)
                        0x0802f401     0x4  Code  Gb  ui_window.o [1]
UIView::restore_context_with_descendant(unsigned char *, int, int *)
                        0x08012c27    0x68  Code  Gb  ui_view.o [1]
UIView::send_msg_no_para(UIView*, int)
                        0x08012b4b    0x22  Code  Gb  ui_view.o [1]
UIView::send_msg_with_para(UIView*, int, int)
                        0x08012b6d    0x18  Code  Gb  ui_view.o [1]
UIView::set_focus()     0x08012917    0x70  Code  Gb  ui_view.o [1]
UIView::set_pos(int, int)
                        0x08012f5f    0x5e  Code  Gb  ui_view.o [1]
UIView::set_size(int, int)
                        0x08012fbd    0x60  Code  Gb  ui_view.o [1]
UIView::show()          0x08012d81    0x16  Code  Gb  ui_view.o [1]
UIView::xsize()         0x0801b54d     0xe  Code  Gb  ui_view.o [1]
UIView::ysize()         0x0801b53f     0xe  Code  Gb  ui_view.o [1]
UIWindow::UIWindow()    0x080187c1    0x1a  Code  Gb  ui_window.o [1]
UIWindow::on_draw()     0x080187e1     0xc  Code  Gb  ui_window.o [1]
UIWindow::on_msg(UIMsg &)
                        0x08018813    0x1a  Code  Gb  ui_window.o [1]
UIWindow::on_msg_default(UIMsg &)
                        0x080187ed    0x26  Code  Gb  ui_window.o [1]
USART1_IRQHandler       0x0802702b    0x24  Code  Gb  stm32l1xx_it.o [1]
USART2_IRQHandler       0x0802704f    0x24  Code  Gb  stm32l1xx_it.o [1]
USART3_IRQHandler       0x08027073    0x24  Code  Gb  stm32l1xx_it.o [1]
UsageFault_Handler      0x08026fed     0x2  Code  Gb  stm32l1xx_it.o [1]
Virtual function table for UIImage
                        0x0802d534    0x18  Data  Gb  ui_image.o [1]
Virtual function table for UIImageList
                        0x0802a3dc    0x2c  Data  Gb  ui_image_list.o [1]
Virtual function table for UILable
                        0x0802d54c    0x18  Data  Gb  ui_lable.o [1]
Virtual function table for UIListBase
                        0x0802a408    0x2c  Data  Gb  ui_list_base.o [1]
Virtual function table for UIListPosIndicator
                        0x0802d564    0x18  Data  Gb  ui_list_pos_indicator.o [1]
Virtual function table for UINormalListBase
                        0x0802a434    0x2c  Data  Gb  ui_normal_list_base.o [1]
Virtual function table for UINumberEdit
                        0x0802d57c    0x18  Data  Gb  ui_number_edit.o [1]
Virtual function table for UIPageControl
                        0x0802a460    0x2c  Data  Gb  ui_page_control.o [1]
Virtual function table for UIProgressBar
                        0x0802d594    0x18  Data  Gb  ui_progress_bar.o [1]
Virtual function table for UIStatusbar
                        0x0802d5ac    0x18  Data  Gb  ui_statusbar.o [1]
Virtual function table for UITextBase
                        0x0802d5c4    0x18  Data  Gb  ui_text_base.o [1]
Virtual function table for UITextList
                        0x0802a48c    0x2c  Data  Gb  ui_text_list.o [1]
Virtual function table for UIWindow
                        0x0802d60c    0x18  Data  Gb  ui_window.o [1]
_Error_Handler          0x0801074d     0x8  Code  Gb  main.o [1]
_GenldFullNoMb          0x0800dceb   0x262  Code  Lc  xprintffull_nomb.o [3]
_LdtobFullNoMb          0x0800d8e9   0x3fc  Code  Lc  xprintffull_nomb.o [3]
_LitobFullNoMb          0x0800d7e3   0x106  Code  Lc  xprintffull_nomb.o [3]
_PrintfFullNoMb         0x0800d1e9   0x586  Code  Gb  xprintffull_nomb.o [3]
_Prout                  0x0802d655    0x16  Code  Gb  xprout.o [3]
_PutcharsFullNoMb       0x0800df4d    0x2e  Code  Lc  xprintffull_nomb.o [3]
_SNProut                0x08002727    0x1a  Code  Gb  xsnprout.o [3]
_SProut                 0x0800278b     0xa  Code  Gb  xsprout.o [3]
__aeabi_cdcmple         0x08019efd          Code  Gb  DblCmpLe.o [4]
__aeabi_cdrcmple        0x08019f2d          Code  Gb  DblCmpGe.o [4]
__aeabi_cfcmple         0x08021625          Code  Gb  FltCmpLe.o [4]
__aeabi_cfrcmple        0x08011819          Code  Gb  FltCmpGe.o [4]
__aeabi_d2f             0x08011175          Code  Gb  DblToFlt.o [4]
__aeabi_d2iz            0x080053c9          Code  Gb  DblToI32.o [4]
__aeabi_d2uiz           0x080053f5          Code  Gb  DblToI32.o [4]
__aeabi_dadd            0x0800e62d          Code  Gb  DblAdd.o [4]
__aeabi_ddiv            0x08005171          Code  Gb  DblDiv.o [4]
__aeabi_dmul            0x0800e489          Code  Gb  DblMul.o [4]
__aeabi_dsub            0x08015d7d          Code  Gb  DblSub.o [4]
__aeabi_errno_addr      0x0801a079     0x6  Code  Gb  errno.o [3]
__aeabi_f2d             0x0801183d          Code  Gb  FltToDbl.o [4]
__aeabi_f2iz            0x08011639          Code  Gb  FltToS32.o [4]
__aeabi_fadd            0x08011795          Code  Gb  FltAdd.o [4]
__aeabi_fdiv            0x08021721          Code  Gb  FltDiv.o [4]
__aeabi_fmul            0x08021649          Code  Gb  FltMul.o [4]
__aeabi_fsub            0x080116ad          Code  Gb  FltSub.o [4]
__aeabi_i2d             0x08005141          Code  Gb  I32ToDbl.o [4]
__aeabi_i2f             0x0801167d          Code  Gb  I32ToFlt.o [4]
__aeabi_ldiv0           0x0801db91          Code  Gb  I64DivZer.o [5]
__aeabi_memclr4         0x08005139          Code  Gb  ABImemclr4.o [5]
__aeabi_memset          0x0800e381          Code  Gb  ABImemset.o [5]
__aeabi_ui2d            0x08005155          Code  Gb  I32ToDbl.o [4]
__aeabi_uldivmod        0x08019dcd          Code  Gb  I64DivMod.o [5]
__cmain                 0x0802d0cd          Code  Gb  cmain.o [5]
__cxa_pure_virtual      0x0802f405     0x4  Code  Gb  xpurevirtual.o [3]
__data_GetMemChunk      0x0801db65    0x2c  Code  Gb  xgetmemchunk.o [3]
__exit                  0x0801f105          Code  Gb  XXexit.o [5]
__iar_Dnorm             0x08019ebb    0x42  Code  Gb  xdnorm.o [4]
__iar_Dscale            0x08019f5d   0x10c  Code  Gb  xdscale.o [4]
__iar_Errno             0x200000a0     0x4  Data  Gb  errno.o [3]
__iar_Memchr            0x08019d75          Code  Gb  memchr.o [5]
__iar_Memset            0x0800e381          Code  Gb  ABImemset.o [5]
__iar_Memset4_word      0x08011141          Code  Gb  ABImemset48.o [5]
__iar_Memset8_word      0x08011141          Code  Gb  ABImemset48.o [5]
__iar_Memset_word       0x0800e389          Code  Gb  ABImemset.o [5]
__iar_Stoul             0x0800e115     0x4  Code  Gb  xstoul.o [3]
__iar_Stoulx            0x0800dfcd   0x142  Code  Gb  xstoul.o [3]
__iar_Strchr            0x080112ad          Code  Gb  strchr.o [5]
__iar_d2uiz             0x08005401          Code  Gb  DblToI32.o [4]
__iar_dadd              0x0800e641          Code  Gb  DblAdd.o [4]
__iar_data_init3        0x0802a8f1    0x28  Code  Gb  data_init.o [5]
__iar_dlfree            0x08019803   0x510  Code  Gb  dlmalloc.o [3]
__iar_dlib_perthread_access
                        0x0801db93     0x2  Code  Gb  xtls.o [3]
__iar_dlmalloc          0x0801954d   0x2aa  Code  Gb  dlmalloc.o [3]
__iar_dsub              0x08015d91          Code  Gb  DblSub.o [4]
__iar_dsubStart         0x08015da3          Code  Gb  DblSub.o [4]
__iar_fadd              0x080117a5          Code  Gb  FltAdd.o [4]
__iar_fsub              0x080116bd          Code  Gb  FltSub.o [4]
__iar_fsubStart         0x080116cd          Code  Gb  FltSub.o [4]
__iar_lz77_init_single3
                        0x080025eb    0x76  Code  Gb  lz77_init_single.o [5]
__iar_program_start     0x0802ef09          Code  Gb  cstartup_M.o [5]
__iar_ui2d              0x08005159          Code  Gb  I32ToDbl.o [4]
__iar_ui2f              0x08011691          Code  Gb  I32ToFlt.o [4]
__iar_unaligned___aeabi_memcpy
                        0x080037d9          Code  Gb  ABImemcpy_unaligned.o [5]
__iar_unaligned___aeabi_memcpy4
                        0x080037f9          Code  Gb  ABImemcpy_unaligned.o [5]
__iar_unaligned___aeabi_memcpy8
                        0x080037f9          Code  Gb  ABImemcpy_unaligned.o [5]
__iar_unaligned_memcmp  0x0800e2d9          Code  Gb  memcmp_unaligned.o [5]
__iar_unaligned_strcmp  0x08002741          Code  Gb  strcmp_unaligned.o [5]
__iar_unaligned_strcpy  0x08002661          Code  Gb  strcpy_unaligned.o [5]
__iar_zero_init3        0x08029355    0x40  Code  Gb  zero_init3.o [5]
__low_level_init        0x0802d0e7     0x4  Code  Gb  low_level_init.o [3]
__vector_table          0x08000000          Data  Gb  startup_stm32l152xc.o [1]
__write                 0x0800df97    0x34  Code  Gb  write.o [1]
_call_main              0x0802d0d9          Code  Gb  cmain.o [5]
_exit                   0x0802d0f1          Code  Gb  cexit.o [5]
_gm_                    0x200057b4   0x1d8  Data  Lc  dlmalloc.o [3]
_main                   0x0802d0e3          Code  Gb  cmain.o [5]
abort                   0x0801db5d     0x6  Code  Gb  abort.o [3]
alarm_clear             0x0800ccf5    0xe0  Code  Gb  alarm.o [1]
alarm_highest_priority_id
                        0x0800ce2b    0x72  Code  Gb  alarm.o [1]
alarm_highest_priority_level
                        0x0800cdd5    0x56  Code  Gb  alarm.o [1]
alarm_id_to_const_str   0x08005495    0xb0  Code  Gb  param.o [1]
alarm_id_to_level       0x0800cb05    0x46  Code  Gb  alarm.o [1]
alarm_init              0x0800ca75    0x90  Code  Gb  alarm.o [1]
alarm_is_play_beep_several_times
                        0x08015d3f    0x14  Code  Gb  alarm_play.o [1]
alarm_is_play_pause     0x08015c97    0x14  Code  Gb  alarm_play.o [1]
alarm_is_set            0x0800cbc1    0x92  Code  Gb  alarm.o [1]
alarm_list_node_is_exist
                        0x0800cb4b    0x3a  Code  Gb  alarm.o [1]
alarm_node_pos          0x0800cb85    0x3c  Code  Gb  alarm.o [1]
alarm_pause_play        0x08015c65    0x32  Code  Gb  alarm_play.o [1]
alarm_pause_timer_out   0x08015c25    0x40  Code  Gb  alarm_play.o [1]
alarm_play              0x08015bc1     0xc  Code  Gb  alarm_play.o [1]
alarm_play_beep_several_times
                        0x08015cd1    0x22  Code  Gb  alarm_play.o [1]
alarm_play_beep_with_count
                        0x08015cab    0x26  Code  Gb  alarm_play.o [1]
alarm_play_beep_with_vibrator
                        0x08015a51    0x3e  Code  Gb  alarm_play.o [1]
alarm_play_beep_without_vibrator
                        0x08015a8f    0x14  Code  Gb  alarm_play.o [1]
alarm_play_ex           0x08015b0f    0xb2  Code  Gb  alarm_play.o [1]
alarm_play_high         0x08015ad9    0x2e  Code  Gb  alarm_play.o [1]
alarm_play_high_without_vibrator
                        0x08015b07     0x8  Code  Gb  alarm_play.o [1]
alarm_play_is_power_can_off
                        0x08015d53    0x28  Code  Gb  alarm_play.o [1]
alarm_play_low          0x08015aa3    0x2e  Code  Gb  alarm_play.o [1]
alarm_play_low_without_vibrator
                        0x08015ad1     0x8  Code  Gb  alarm_play.o [1]
alarm_set               0x0800cc53    0xa2  Code  Gb  alarm.o [1]
alarm_stop_play         0x08015c1b     0xa  Code  Gb  alarm_play.o [1]
alarm_stop_play_beep_several_times
                        0x08015d35     0xa  Code  Gb  alarm_play.o [1]
alarm_stop_play_internal
                        0x08015bcd    0x4e  Code  Gb  alarm_play.o [1]
app_alarm_auto_close_remind()
                        0x0801f687    0x10  Code  Gb  app_alarm_event_handle.o [1]
app_alarm_event_handle_init()
                        0x0801f783    0x14  Code  Gb  app_alarm_event_handle.o [1]
app_alarm_on_clear(MsgParam)
                        0x0801f74f    0x34  Code  Gb  app_alarm_event_handle.o [1]
app_alarm_on_set(MsgParam)
                        0x0801f697    0xb8  Code  Gb  app_alarm_event_handle.o [1]
app_alarm_play(AlarmID)
                        0x0801f5a3    0x5a  Code  Gb  app_alarm_event_handle.o [1]
app_alarm_update_voice_and_display()
                        0x0801f5fd    0x8a  Code  Gb  app_alarm_event_handle.o [1]
app_alternative_popup_callback(ScreenStruct *, UIMsg *)
                        0x08011e97    0x60  Code  Lc  app_alternative_popup.o [1]
app_alternative_popup_enter(char const *, char const *, char const *, int, void (*)(PopupReturnCode, int))
                        0x08011f85    0x10  Code  Gb  app_alternative_popup.o [1]
app_alternative_popup_enter_ex(char const *, char const *, char const *, int, ScreenStruct *, void (*)(PopupReturnCode, int))
                        0x08011ef7    0x72  Code  Gb  app_alternative_popup.o [1]
app_alternative_popup_on_press_back_key(KeyID, int)
                        0x08011d5d    0x34  Code  Lc  app_alternative_popup.o [1]
app_alternative_popup_on_press_left_key(KeyID, int)
                        0x08011d91    0x1c  Code  Lc  app_alternative_popup.o [1]
app_alternative_popup_on_press_ok_key(KeyID, int)
                        0x08011d29    0x34  Code  Lc  app_alternative_popup.o [1]
app_alternative_popup_on_press_right_key(KeyID, int)
                        0x08011dad    0x1c  Code  Lc  app_alternative_popup.o [1]
app_alternative_popup_on_scr_activate(ScreenStruct *, UIView *)
                        0x08011de7    0x3a  Code  Lc  app_alternative_popup.o [1]
app_alternative_popup_on_scr_create(ScreenStruct *)
                        0x08011dc9     0x2  Code  Lc  app_alternative_popup.o [1]
app_alternative_popup_on_scr_force_draw(ScreenStruct *, UIView *)
                        0x08011e21    0x76  Code  Lc  app_alternative_popup.o [1]
app_alternative_popup_on_scr_widget_init(ScreenStruct *, UIView *)
                        0x08011dcb    0x1c  Code  Lc  app_alternative_popup.o [1]
app_alternative_popup_update(ScreenStruct *)
                        0x08011cf1    0x38  Code  Lc  app_alternative_popup.o [1]
app_check_battery_alarm()
                        0x0801fc87    0x92  Code  Gb  app_msg_handle.o [1]
app_check_last_infuse   0x080166c1    0x6e  Code  Gb  app_check_last_infuse.o [1]
app_check_last_infuse_confirm_popup_callback(PopupReturnCode)
                        0x0801f539     0xe  Code  Lc  app_alarm_event_handle.o [1]
app_check_last_infuse_on_cancel_infuse(PopupReturnCode)
                        0x08016615    0x30  Code  Lc  app_check_last_infuse.o [1]
app_check_last_infuse_on_clear_user_data(PopupReturnCode)
                        0x0801f573    0x30  Code  Lc  app_alarm_event_handle.o [1]
app_check_last_infuse_on_clear_user_data_finished(PopupReturnCode)
                        0x0801f547    0x2c  Code  Lc  app_alarm_event_handle.o [1]
app_check_last_infuse_on_select_if_resume_infuse(PopupReturnCode, int)
                        0x08016645    0x7c  Code  Lc  app_check_last_infuse.o [1]
app_cmd_ad(char const *, char **, int)
                        0x08000709    0xe2  Code  Gb  app_cmd.o [1]
app_cmd_change_data(char const *, char **, int)
                        0x080009c1    0xb4  Code  Lc  app_cmd.o [1]
app_cmd_clear_alarm(char const *, char **, int)
                        0x08001f51    0x18  Code  Gb  app_cmd.o [1]
app_cmd_clear_data(char const *, char **, int)
                        0x08000b15    0x68  Code  Lc  app_cmd.o [1]
app_cmd_clear_log(char const *, char **, int)
                        0x08000e75    0x38  Code  Lc  app_cmd.o [1]
app_cmd_cpu_usage(char const *, char **, int)
                        0x08000443     0xc  Code  Lc  app_cmd.o [1]
app_cmd_data(char const *, char **, int)
                        0x080007eb   0x1d6  Code  Gb  app_cmd.o [1]
app_cmd_data_map(char const *, char **, int)
                        0x08000a75    0xa0  Code  Gb  app_cmd.o [1]
app_cmd_disable_output(char const *, char **, int)
                        0x0800034b    0x40  Code  Lc  app_cmd.o [1]
app_cmd_disable_sleep(char const *, char **, int)
                        0x08001f91    0x16  Code  Gb  app_cmd.o [1]
app_cmd_enable_output(char const *, char **, int)
                        0x0800030b    0x40  Code  Lc  app_cmd.o [1]
app_cmd_enable_receive  0x0800222d     0xe  Code  Gb  app_cmd.o [1]
app_cmd_enable_sleep(char const *, char **, int)
                        0x08001fa7    0x16  Code  Gb  app_cmd.o [1]
app_cmd_enter_factory_mode(char const *, char **, int)
                        0x08001c19     0xa  Code  Lc  app_cmd.o [1]
app_cmd_enter_low_mode(char const *, char **, int)
                        0x08001c23    0x72  Code  Lc  app_cmd.o [1]
app_cmd_erase(char const *, char **, int)
                        0x08000f77    0x2c  Code  Gb  app_cmd.o [1]
app_cmd_exit(char const *, char **, int)
                        0x080001f7    0x18  Code  Lc  app_cmd.o [1]
app_cmd_filter_log(char const *, char **, int)
                        0x08000d9d    0xd2  Code  Lc  app_cmd.o [1]
app_cmd_handle_special_char(unsigned char)
                        0x080020b5    0x6c  Code  Lc  app_cmd.o [1]
app_cmd_help(char const *, char **, int)
                        0x0800017d    0x7a  Code  Lc  app_cmd.o [1]
app_cmd_infusion_info(char const *, char **, int)
                        0x08001337   0x146  Code  Lc  app_cmd.o [1]
app_cmd_infusion_pause(char const *, char **, int)
                        0x080012f5    0x16  Code  Lc  app_cmd.o [1]
app_cmd_infusion_resume(char const *, char **, int)
                        0x0800130b    0x16  Code  Lc  app_cmd.o [1]
app_cmd_infusion_start(char const *, char **, int)
                        0x08001205    0xbc  Code  Lc  app_cmd.o [1]
app_cmd_infusion_stop(char const *, char **, int)
                        0x08001321    0x16  Code  Lc  app_cmd.o [1]
app_cmd_init            0x0800224d    0x16  Code  Gb  app_cmd.o [1]
app_cmd_installed_pressure(char const *, char **, int)
                        0x08001d01    0x1e  Code  Lc  app_cmd.o [1]
app_cmd_io(char const *, char **, int)
                        0x080004d5   0x234  Code  Gb  app_cmd.o [1]
app_cmd_io_off(char const *, char **, int)
                        0x080018b5   0x114  Code  Lc  app_cmd.o [1]
app_cmd_io_on(char const *, char **, int)
                        0x08001775   0x124  Code  Lc  app_cmd.o [1]
app_cmd_led_off(char const *, char **, int)
                        0x08001a75    0xa4  Code  Lc  app_cmd.o [1]
app_cmd_led_on(char const *, char **, int)
                        0x080019cd    0xa4  Code  Lc  app_cmd.o [1]
app_cmd_log(char const *, char **, int)
                        0x08000cd1    0xba  Code  Lc  app_cmd.o [1]
app_cmd_module(char const *, char **, int)
                        0x08000301     0xa  Code  Lc  app_cmd.o [1]
app_cmd_motor_reverse(char const *, char **, int)
                        0x08001505    0x5c  Code  Lc  app_cmd.o [1]
app_cmd_motor_reverse_ex(char const *, char **, int)
                        0x08001597    0x1e  Code  Lc  app_cmd.o [1]
app_cmd_motor_run(char const *, char **, int)
                        0x08001491    0x5a  Code  Lc  app_cmd.o [1]
app_cmd_motor_run_ex(char const *, char **, int)
                        0x08001579    0x1e  Code  Lc  app_cmd.o [1]
app_cmd_motor_stop(char const *, char **, int)
                        0x080015b5    0x3c  Code  Lc  app_cmd.o [1]
app_cmd_move_to(char const *, char **, int)
                        0x08001605    0x48  Code  Lc  app_cmd.o [1]
app_cmd_oled_cmd(char const *, char **, int)
                        0x08001b4b    0x2e  Code  Lc  app_cmd.o [1]
app_cmd_oled_off(char const *, char **, int)
                        0x08001b41     0xa  Code  Lc  app_cmd.o [1]
app_cmd_oled_on(char const *, char **, int)
                        0x08001b37     0xa  Code  Lc  app_cmd.o [1]
app_cmd_on_receive_byte(unsigned char, bool)
                        0x08002139    0xee  Code  Lc  app_cmd.o [1]
app_cmd_output_all_module_info()
                        0x08000265    0x48  Code  Lc  app_cmd.o [1]
app_cmd_output_error_info(int)
                        0x08000151    0x2c  Code  Lc  app_cmd.o [1]
app_cmd_parse_from_str(char const *)
                        0x08001fd1    0xe4  Code  Lc  app_cmd.o [1]
app_cmd_print_and_get_log_type(int)
                        0x08000b7d    0x2e  Code  Gb  app_cmd.o [1]
app_cmd_print_log(LogType, unsigned int, int, bool)
                        0x08000bb1   0x108  Code  Lc  app_cmd.o [1]
app_cmd_read_nvram(char const *, char **, int)
                        0x08000fbd    0xcc  Code  Gb  app_cmd.o [1]
app_cmd_repeat(char const *, char **, int)
                        0x0800020f    0x26  Code  Lc  app_cmd.o [1]
app_cmd_repeat_exe_cmd()
                        0x08000139    0x18  Code  Gb  app_cmd.o [1]
app_cmd_reset_slaver(char const *, char **, int)
                        0x08001ecd    0x28  Code  Gb  app_cmd.o [1]
app_cmd_send_return_flag(int)
                        0x08000125    0x14  Code  Lc  app_cmd.o [1]
app_cmd_set_date(char const *, char **, int)
                        0x08000491    0x30  Code  Lc  app_cmd.o [1]
app_cmd_set_module_output_by_name(char const *, bool)
                        0x080002ad    0x54  Code  Lc  app_cmd.o [1]
app_cmd_set_no_operate_time(char const *, char **, int)
                        0x08001f69    0x28  Code  Gb  app_cmd.o [1]
app_cmd_set_time(char const *, char **, int)
                        0x08000471    0x20  Code  Lc  app_cmd.o [1]
app_cmd_start_rtc(char const *, char **, int)
                        0x080004c1     0xa  Code  Lc  app_cmd.o [1]
app_cmd_stop_rtc(char const *, char **, int)
                        0x080004cb     0xa  Code  Lc  app_cmd.o [1]
app_cmd_stop_watch_set(char const *, char **, int)
                        0x08000235    0x30  Code  Lc  app_cmd.o [1]
app_cmd_test_com(char const *, char **, int)
                        0x08001ca1    0x12  Code  Lc  app_cmd.o [1]
app_cmd_test_lifetime(char const *, char **, int)
                        0x08001d2d    0x8c  Code  Lc  app_cmd.o [1]
app_cmd_test_log(char const *, char **, int)
                        0x08000ecd    0xaa  Code  Lc  app_cmd.o [1]
app_cmd_test_motor(char const *, char **, int)
                        0x08001dc1    0x4a  Code  Lc  app_cmd.o [1]
app_cmd_test_motor_cmd(char const *, char **, int)
                        0x08001e15    0xb0  Code  Lc  app_cmd.o [1]
app_cmd_test_play_printf()
                        0x08001665     0x2  Code  Gb  app_cmd.o [1]
app_cmd_test_ui(char const *, char **, int)
                        0x08001149    0x9e  Code  Lc  app_cmd.o [1]
app_cmd_test_watchdog(char const *, char **, int)
                        0x0800038b     0xa  Code  Lc  app_cmd.o [1]
app_cmd_time(char const *, char **, int)
                        0x0800044f    0x12  Code  Lc  app_cmd.o [1]
app_cmd_version(char const *, char **, int)
                        0x08000395    0xae  Code  Lc  app_cmd.o [1]
app_cmd_vibrator_play(char const *, char **, int)
                        0x08001b21    0x16  Code  Lc  app_cmd.o [1]
app_cmd_wake_up_slaver(char const *, char **, int)
                        0x08001cb3    0x4e  Code  Lc  app_cmd.o [1]
app_cmd_write_nvram(char const *, char **, int)
                        0x0800109d    0x8a  Code  Gb  app_cmd.o [1]
app_cmd_write_sn(char const *, char **, int)
                        0x08001f01    0x42  Code  Gb  app_cmd.o [1]
app_delivery_a_bag_rest_time_secs
                        0x08008741    0x12  Code  Gb  app_delivery.o [1]
app_delivery_b_bag_rest_time_secs
                        0x0800875d    0x64  Code  Gb  app_delivery.o [1]
app_delivery_calc_a_bag_rest_time_secs
                        0x08008425   0x318  Code  Gb  app_delivery.o [1]
app_delivery_check_delivery_point()
                        0x08007435    0x66  Code  Gb  app_delivery.o [1]
app_delivery_curr_bag   0x080082ed    0x2a  Code  Gb  app_delivery.o [1]
app_delivery_curr_running_infusion
                        0x08008849    0x22  Code  Gb  app_delivery.o [1]
app_delivery_curr_speed
                        0x08008321    0x36  Code  Gb  app_delivery.o [1]
app_delivery_get_a_bag_infusion_speed(InfusionType, InfusionTime const *)
                        0x0800749b    0x82  Code  Gb  app_delivery.o [1]
app_delivery_get_a_bag_next_infuse_dose(InfusionType, InfusionTime const *, InfusionBagMeds *, int *)
                        0x0800751d    0x84  Code  Gb  app_delivery.o [1]
app_delivery_get_b_bag_next_infuse_dose(InfusionType, InfusionBagMeds *, int *)
                        0x080075a1    0x4c  Code  Gb  app_delivery.o [1]
app_delivery_get_diff_ms_from_now(InfusionTime const *)
                        0x080073dd    0x38  Code  Gb  app_delivery.o [1]
app_delivery_get_next_infuse_dose(InfusionType, InfusionTime const *, InfusionBagMeds *, int *)
                        0x080075ed    0x70  Code  Gb  app_delivery.o [1]
app_delivery_get_next_infuse_point(InfusionType, InfusionTime const *, InfusionBagMeds *, int *, InfusionTime *, int *, int *)
                        0x0800783f    0x80  Code  Gb  app_delivery.o [1]
app_delivery_get_next_infuse_time(InfusionType, InfusionTime const *, InfusionBagMeds *, InfusionTime *, int *, int *)
                        0x0800765d   0x1e2  Code  Gb  app_delivery.o [1]
app_delivery_info       0x08008807     0xc  Code  Gb  app_delivery.o [1]
app_delivery_infuse_next_one_point_at_once
                        0x080088bb    0x20  Code  Gb  app_delivery.o [1]
app_delivery_infuse_one_point_dose(InfusionType, int, InfusionBagMeds, int)
                        0x08007bbd   0x182  Code  Gb  app_delivery.o [1]
app_delivery_infuse_one_point_dose_after_ms()
                        0x08007415    0x20  Code  Gb  app_delivery.o [1]
app_delivery_infused_dose
                        0x08008379    0x3c  Code  Gb  app_delivery.o [1]
app_delivery_init       0x08007d47    0x18  Code  Gb  app_delivery.o [1]
app_delivery_is_can_run()
                        0x08007e4d    0x14  Code  Gb  app_delivery.o [1]
app_delivery_is_exit_running_infusion
                        0x08008829    0x20  Code  Gb  app_delivery.o [1]
app_delivery_is_finish_expect_target
                        0x080087f5    0x12  Code  Gb  app_delivery.o [1]
app_delivery_is_finish_expect_target_ex
                        0x080087c1    0x34  Code  Gb  app_delivery.o [1]
app_delivery_is_in_peak_mode
                        0x0800893d    0x9c  Code  Gb  app_delivery.o [1]
app_delivery_is_infusing_one_point
                        0x0800835d    0x1c  Code  Gb  app_delivery.o [1]
app_delivery_meds_b_infused_dose
                        0x080083b5    0x3c  Code  Gb  app_delivery.o [1]
app_delivery_next_infuse_point_diff_ms_from_now
                        0x080088a3    0x18  Code  Gb  app_delivery.o [1]
app_delivery_next_infuse_point_time
                        0x0800886b    0x38  Code  Gb  app_delivery.o [1]
app_delivery_on_infuse_next_one_point_at_once(MsgParam)
                        0x08007d3f     0x8  Code  Gb  app_delivery.o [1]
app_delivery_on_motor_stop(int, int)
                        0x08007a9b   0x11e  Code  Gb  app_delivery.o [1]
app_delivery_pause      0x080081b9     0xc  Code  Gb  app_delivery.o [1]
app_delivery_pause_internal(InfusionType, int)
                        0x0800810d    0x9e  Code  Gb  app_delivery.o [1]
app_delivery_resume     0x08008069    0xa0  Code  Gb  app_delivery.o [1]
app_delivery_run_internal(InfusionType)
                        0x08007f87    0xd4  Code  Gb  app_delivery.o [1]
app_delivery_save_infusion_info
                        0x08008813    0x16  Code  Gb  app_delivery.o [1]
app_delivery_set_infusion_param
                        0x08007d79    0xd4  Code  Gb  app_delivery.o [1]
app_delivery_set_next_infuse_point(InfusionType)
                        0x080078bf   0x124  Code  Gb  app_delivery.o [1]
app_delivery_set_ready  0x08007d5f    0x14  Code  Gb  app_delivery.o [1]
app_delivery_start      0x08007e61    0x82  Code  Gb  app_delivery.o [1]
app_delivery_start_to_pause
                        0x08007ee3    0x8a  Code  Gb  app_delivery.o [1]
app_delivery_start_with_param
                        0x08007f6d    0x1a  Code  Gb  app_delivery.o [1]
app_delivery_state      0x080082d5    0x12  Code  Gb  app_delivery.o [1]
app_delivery_stop       0x080081c5   0x10c  Code  Gb  app_delivery.o [1]
app_delivery_update_infusion_data_info(InfusionType, InfusionBagMeds, int)
                        0x080079e3    0xb8  Code  Gb  app_delivery.o [1]
app_drv_isd2360_set_volume(char const *, char **, int)
                        0x08001755    0x20  Code  Lc  app_cmd.o [1]
app_drv_isd2360_test_play(char const *, char **, int)
                        0x08001667    0xce  Code  Lc  app_cmd.o [1]
app_enable_sleep()      0x0801fe79     0xa  Code  Gb  app_msg_handle.o [1]
app_history_log_callback(ScreenStruct *, UIMsg *)
                        0x08014383    0x4c  Code  Lc  app_history_log.o [1]
app_history_log_enter   0x080143cf    0x16  Code  Gb  app_history_log.o [1]
app_history_log_on_press_back_key(KeyID, int)
                        0x080142fd     0x8  Code  Lc  app_history_log.o [1]
app_history_log_on_press_left_key(KeyID, int)
                        0x080142b1    0x22  Code  Lc  app_history_log.o [1]
app_history_log_on_press_right_key(KeyID, int)
                        0x080142d3    0x2a  Code  Lc  app_history_log.o [1]
app_history_log_on_scr_activate(ScreenStruct *, UIView *)
                        0x0801433b    0x48  Code  Lc  app_history_log.o [1]
app_history_log_on_scr_create(ScreenStruct *)
                        0x08014305    0x1e  Code  Lc  app_history_log.o [1]
app_history_log_on_scr_widget_init(ScreenStruct *, UIView *)
                        0x08014323    0x18  Code  Lc  app_history_log.o [1]
app_history_log_view_log(ScreenStruct *, int)
                        0x080141ed    0xc4  Code  Lc  app_history_log.o [1]
app_home_callback(ScreenStruct *, UIMsg *)
                        0x08016559    0x5e  Code  Lc  app_home.o [1]
app_home_enter          0x080165b7    0x16  Code  Gb  app_home.o [1]
app_home_on_press_ok_key(KeyID, int)
                        0x08016459    0x12  Code  Lc  app_home.o [1]
app_home_on_press_start_key(KeyID, int)
                        0x0801646b    0x5c  Code  Lc  app_home.o [1]
app_home_on_scr_activate(ScreenStruct *)
                        0x080164eb    0x68  Code  Lc  app_home.o [1]
app_home_on_scr_create(ScreenStruct *)
                        0x080164c7     0x2  Code  Lc  app_home.o [1]
app_home_on_scr_widget_init(ScreenStruct *, UIView *)
                        0x080164c9    0x22  Code  Lc  app_home.o [1]
app_home_update_screen()
                        0x080160f5   0x364  Code  Lc  app_home.o [1]
app_infusion_add_pause_log(InfusionType)
                        0x0801f8a3    0x8e  Code  Gb  app_infusion_event_handle.o [1]
app_infusion_add_resume_log(InfusionType)
                        0x0801f931    0x46  Code  Gb  app_infusion_event_handle.o [1]
app_infusion_add_start_log(InfusionType)
                        0x0801f7cb    0xd8  Code  Gb  app_infusion_event_handle.o [1]
app_infusion_add_stop_log(InfusionType)
                        0x0801f977    0x8e  Code  Gb  app_infusion_event_handle.o [1]
app_infusion_event_handle_init()
                        0x0801fbd1    0x36  Code  Gb  app_infusion_event_handle.o [1]
app_infusion_monitor_check()
                        0x0802067d    0x20  Code  Gb  app_infusion_monitor.o [1]
app_infusion_monitor_check_bubble(bool)
                        0x080202c5   0x28e  Code  Lc  app_infusion_monitor.o [1]
app_infusion_monitor_check_install()
                        0x080205b7    0xc2  Code  Lc  app_infusion_monitor.o [1]
app_infusion_monitor_check_near_empty()
                        0x08020553    0x64  Code  Lc  app_infusion_monitor.o [1]
app_infusion_monitor_check_pressure(bool)
                        0x0802010d   0x194  Code  Lc  app_infusion_monitor.o [1]
app_infusion_monitor_check_when_motor_run()
                        0x080207d5    0xe6  Code  Gb  app_infusion_monitor.o [1]
app_infusion_monitor_init()
                        0x08020a3f    0x1c  Code  Gb  app_infusion_monitor.o [1]
app_infusion_monitor_on_before_motor_start(MsgParam)
                        0x080208bb    0x18  Code  Gb  app_infusion_monitor.o [1]
app_infusion_monitor_on_motor_start(MsgParam)
                        0x080208d3    0x8c  Code  Gb  app_infusion_monitor.o [1]
app_infusion_monitor_on_motor_stop(MsgParam)
                        0x0802095f    0xe0  Code  Gb  app_infusion_monitor.o [1]
app_infusion_monitor_run_encoder_after_start()
                        0x080202a1    0x20  Code  Lc  app_infusion_monitor.o [1]
app_infusion_monitor_start(unsigned char)
                        0x0802069d    0xca  Code  Gb  app_infusion_monitor.o [1]
app_infusion_monitor_stop()
                        0x08020767    0x42  Code  Gb  app_infusion_monitor.o [1]
app_infusion_next_to_test_lifetime(MsgParam)
                        0x0801fab5    0x10  Code  Gb  app_infusion_event_handle.o [1]
app_infusion_next_to_test_lifetime_time_out()
                        0x0801fac5    0x1e  Code  Gb  app_infusion_event_handle.o [1]
app_infusion_on_one_point_stop(MsgParam)
                        0x0801fbc7     0xa  Code  Gb  app_infusion_event_handle.o [1]
app_infusion_on_pause(MsgParam)
                        0x0801fae3    0xa2  Code  Gb  app_infusion_event_handle.o [1]
app_infusion_on_pause_internal(InfusionType)
                        0x0801fa3f    0x26  Code  Gb  app_infusion_event_handle.o [1]
app_infusion_on_resume(MsgParam)
                        0x0801fb85    0x1a  Code  Gb  app_infusion_event_handle.o [1]
app_infusion_on_run_internal(InfusionType)
                        0x0801fa05    0x3a  Code  Gb  app_infusion_event_handle.o [1]
app_infusion_on_start(MsgParam)
                        0x0801fa81    0x34  Code  Gb  app_infusion_event_handle.o [1]
app_infusion_on_stop(MsgParam)
                        0x0801fb9f    0x28  Code  Gb  app_infusion_event_handle.o [1]
app_infusion_on_stop_internal(InfusionType)
                        0x0801fa65    0x1c  Code  Gb  app_infusion_event_handle.o [1]
app_infusion_pause_too_long()
                        0x0801f7b5    0x16  Code  Lc  app_infusion_event_handle.o [1]
app_key_event_handle_init()
                        0x0801f513    0x14  Code  Gb  app_key_event_handle.o [1]
app_key_on_before_any_combination_key_handle(KeyID, KeyID, KeyEvent, bool)
                        0x0801f503    0x10  Code  Gb  app_key_event_handle.o [1]
app_key_on_before_any_key_handle(KeyID, KeyEvent, bool, int)
                        0x0801f425    0xde  Code  Lc  app_key_event_handle.o [1]
app_main_menu_callback(ScreenStruct *, UIMsg *)
                        0x0800a657    0xa4  Code  Lc  app_main_menu.o [1]
app_main_menu_enter     0x0800a6fb    0x16  Code  Gb  app_main_menu.o [1]
app_main_menu_on_clear_air_remind_confirm(PopupReturnCode)
                        0x0800a2a9    0x16  Code  Lc  app_main_menu.o [1]
app_main_menu_on_enter_clear_air(PopupReturnCode)
                        0x0800a2d5    0x26  Code  Lc  app_main_menu.o [1]
app_main_menu_on_enter_new_task(PopupReturnCode)
                        0x0800a2bf    0x16  Code  Lc  app_main_menu.o [1]
app_main_menu_on_enter_stop_infusion(PopupReturnCode)
                        0x0800a2fb    0x78  Code  Lc  app_main_menu.o [1]
app_main_menu_on_press_back_key(KeyID, int)
                        0x0800a591    0x12  Code  Lc  app_main_menu.o [1]
app_main_menu_on_press_ok_key(KeyID, int)
                        0x0800a373   0x21e  Code  Lc  app_main_menu.o [1]
app_main_menu_on_scr_activate(ScreenStruct *, UIView *)
                        0x0800a617    0x40  Code  Lc  app_main_menu.o [1]
app_main_menu_on_scr_create(ScreenStruct *)
                        0x0800a5a3     0x2  Code  Lc  app_main_menu.o [1]
app_main_menu_on_scr_widget_init(ScreenStruct *, UIView *)
                        0x0800a5a5    0x72  Code  Lc  app_main_menu.o [1]
app_main_menu_on_select_if_stop_infuse(PopupReturnCode, int)
                        0x0800a1cd    0x1e  Code  Lc  app_main_menu.o [1]
app_main_menu_on_select_if_stop_infuse_by_clean_tube(PopupReturnCode, int)
                        0x0800a1eb    0x56  Code  Lc  app_main_menu.o [1]
app_main_menu_on_select_stop_infuse_way(PopupReturnCode, int)
                        0x0800a241    0x68  Code  Lc  app_main_menu.o [1]
app_mcu_comm_analysis_from_slave(TsUartCommand)
                        0x08002ac3   0x26c  Code  Gb  app_mcu_comm.o [1]
app_mcu_comm_init       0x08002e45    0x16  Code  Gb  app_mcu_comm.o [1]
app_mcu_comm_on_receive_byte(unsigned char, bool)
                        0x08002d65    0xdc  Code  Lc  app_mcu_comm.o [1]
app_mcu_comm_recv_from_slave_time_out()
                        0x08002a73     0xa  Code  Gb  app_mcu_comm.o [1]
app_mcu_monitor_reset_slave_on_time_expired()
                        0x0800ae9f    0xa4  Code  Gb  app_mcu_monitor.o [1]
app_mcu_monitor_set_slave_reset_pin_high()
                        0x0800ae79    0x26  Code  Gb  app_mcu_monitor.o [1]
app_mcu_monitor_set_watchdog_expired_time(int)
                        0x0800af83    0x1c  Code  Gb  app_mcu_monitor.o [1]
app_mcu_monitor_start()
                        0x0800af43    0x28  Code  Gb  app_mcu_monitor.o [1]
app_mcu_monitor_stop()  0x0800af6b     0xa  Code  Gb  app_mcu_monitor.o [1]
app_mcu_monitor_stop_and_clear_reset_count()
                        0x0800af75     0xe  Code  Gb  app_mcu_monitor.o [1]
app_mcu_receive_slaver_version_ture
                        0x08002ab1    0x12  Code  Gb  app_mcu_comm.o [1]
app_mcu_send_to_slave   0x08002d2f    0x36  Code  Gb  app_mcu_comm.o [1]
app_mcu_set_receive_slaver_version_flag(int)
                        0x08002a7d    0x34  Code  Gb  app_mcu_comm.o [1]
app_motor_monitor_handle_msg_start(MsgParam)
                        0x0801f179     0x2  Code  Gb  app_motor_monitor.o [1]
app_motor_monitor_handle_msg_stop(MsgParam)
                        0x0801f17b     0x2  Code  Gb  app_motor_monitor.o [1]
app_motor_monitor_init()
                        0x0801f17d    0x14  Code  Gb  app_motor_monitor.o [1]
app_msg_handle_init()   0x08020065    0x4c  Code  Gb  app_msg_handle.o [1]
app_on_alarm_voice_mute(MsgParam)
                        0x08020061     0x2  Code  Gb  app_msg_handle.o [1]
app_on_alarm_voice_unmute(MsgParam)
                        0x08020063     0x2  Code  Gb  app_msg_handle.o [1]
app_on_battery_level_changed(MsgParam)
                        0x0801fd19     0xc  Code  Gb  app_msg_handle.o [1]
app_on_battery_level_changed_when_motor_run(MsgParam)
                        0x0801fd25    0xbe  Code  Gb  app_msg_handle.o [1]
app_on_close_display(MsgParam)
                        0x0801fe5b    0x1e  Code  Gb  app_msg_handle.o [1]
app_on_extern_power_changed(MsgParam)
                        0x0801fde3    0x4a  Code  Gb  app_msg_handle.o [1]
app_on_go_to_sleep(MsgParam)
                        0x0801fe83   0x1de  Code  Gb  app_msg_handle.o [1]
app_on_install_state_changed(MsgParam)
                        0x0801fe4f     0xc  Code  Gb  app_msg_handle.o [1]
app_on_time_changed(MsgParam)
                        0x0801fe2d    0x22  Code  Gb  app_msg_handle.o [1]
app_operation_log_callback(ScreenStruct *, UIMsg *)
                        0x0801d543    0x4c  Code  Lc  app_operation_log.o [1]
app_operation_log_enter
                        0x0801d58f    0x16  Code  Gb  app_operation_log.o [1]
app_operation_log_on_press_back_key(KeyID, int)
                        0x0801d4bd     0x8  Code  Lc  app_operation_log.o [1]
app_operation_log_on_press_left_key(KeyID, int)
                        0x0801d471    0x22  Code  Lc  app_operation_log.o [1]
app_operation_log_on_press_right_key(KeyID, int)
                        0x0801d493    0x2a  Code  Lc  app_operation_log.o [1]
app_operation_log_on_scr_activate(ScreenStruct *, UIView *)
                        0x0801d4fb    0x48  Code  Lc  app_operation_log.o [1]
app_operation_log_on_scr_create(ScreenStruct *)
                        0x0801d4c5    0x1e  Code  Lc  app_operation_log.o [1]
app_operation_log_on_scr_widget_init(ScreenStruct *, UIView *)
                        0x0801d4e3    0x18  Code  Lc  app_operation_log.o [1]
app_operation_log_view_log(ScreenStruct *, int)
                        0x0801d3ad    0xc4  Code  Lc  app_operation_log.o [1]
app_popup_callback(ScreenStruct *, UIMsg *)
                        0x0801267d    0x52  Code  Lc  app_popup.o [1]
app_popup_enter(PopupType, char const *, char const *, void (*)(PopupReturnCode))
                        0x080127f5     0xe  Code  Gb  app_popup.o [1]
app_popup_enter_ex(PopupType, char const *, char const *, ScreenStruct *, void (*)(PopupReturnCode))
                        0x080126cf    0xfe  Code  Gb  app_popup.o [1]
app_popup_on_press_back_key(KeyID, int)
                        0x080124fd    0x38  Code  Lc  app_popup.o [1]
app_popup_on_press_ok_key(KeyID, int)
                        0x080124cd    0x30  Code  Lc  app_popup.o [1]
app_popup_on_scr_activate(ScreenStruct *, UIView *)
                        0x08012657    0x26  Code  Lc  app_popup.o [1]
app_popup_on_scr_create(ScreenStruct *)
                        0x08012535     0x2  Code  Lc  app_popup.o [1]
app_popup_on_scr_widget_init(ScreenStruct *, UIView *)
                        0x08012537   0x120  Code  Lc  app_popup.o [1]
app_post                0x08016067    0x46  Code  Gb  app_startup_and_post.o [1]
app_post_beep_and_voice_check
                        0x08015fb3    0x28  Code  Lc  app_startup_and_post.o [1]
app_post_bubble_sensor_check
                        0x08016001    0x22  Code  Lc  app_startup_and_post.o [1]
app_post_display_check  0x08015f41    0x3c  Code  Lc  app_startup_and_post.o [1]
app_post_infusion_motor_check
                        0x08015fdb    0x26  Code  Lc  app_startup_and_post.o [1]
app_post_led_green_check
                        0x08015fa1    0x12  Code  Lc  app_startup_and_post.o [1]
app_post_led_red_check  0x08015f7d    0x12  Code  Lc  app_startup_and_post.o [1]
app_post_led_yellow_check
                        0x08015f8f    0x12  Code  Lc  app_startup_and_post.o [1]
app_post_pressure_sensor_check
                        0x08016023    0x44  Code  Lc  app_startup_and_post.o [1]
app_scr_alarm_callback(ScreenStruct *, UIMsg *)
                        0x08022029    0x4c  Code  Lc  app_scr_alarm.o [1]
app_scr_alarm_enter(AlarmID)
                        0x080220f7    0x22  Code  Gb  app_scr_alarm.o [1]
app_scr_alarm_on_press_back_key(KeyID, int)
                        0x08021d8f    0x76  Code  Lc  app_scr_alarm.o [1]
app_scr_alarm_on_press_ok_key(KeyID, int)
                        0x08021d61    0x2e  Code  Lc  app_scr_alarm.o [1]
app_scr_alarm_on_scr_activate(ScreenStruct *, UIView *)
                        0x08022011    0x18  Code  Lc  app_scr_alarm.o [1]
app_scr_alarm_on_scr_create(ScreenStruct *)
                        0x08021e05     0x2  Code  Lc  app_scr_alarm.o [1]
app_scr_alarm_on_scr_widget_init(ScreenStruct *, UIView *)
                        0x08021e07   0x20a  Code  Lc  app_scr_alarm.o [1]
app_scr_alarm_resume_play_change_text(MsgParam)
                        0x08022075    0x82  Code  Gb  app_scr_alarm.o [1]
app_scr_change_oled_brightness_callback(ScreenStruct *, UIMsg *)
                        0x0801d32b    0x4c  Code  Lc  app_scr_change_oled_brightness.o [1]
app_scr_change_oled_brightness_enter
                        0x0801d377    0x16  Code  Gb  app_scr_change_oled_brightness.o [1]
app_scr_change_oled_brightness_on_press_back_key(KeyID, int)
                        0x0801d20d     0x8  Code  Lc  app_scr_change_oled_brightness.o [1]
app_scr_change_oled_brightness_on_press_left_key(KeyID, int)
                        0x0801d215    0x4a  Code  Lc  app_scr_change_oled_brightness.o [1]
app_scr_change_oled_brightness_on_press_ok_key(KeyID, int)
                        0x0801d1b9    0x54  Code  Lc  app_scr_change_oled_brightness.o [1]
app_scr_change_oled_brightness_on_press_right_key(KeyID, int)
                        0x0801d25f    0x4a  Code  Lc  app_scr_change_oled_brightness.o [1]
app_scr_change_oled_brightness_on_scr_activate(ScreenStruct *, UIView *)
                        0x0801d2ff    0x2c  Code  Lc  app_scr_change_oled_brightness.o [1]
app_scr_change_oled_brightness_on_scr_create(ScreenStruct *)
                        0x0801d2a9     0x2  Code  Lc  app_scr_change_oled_brightness.o [1]
app_scr_change_oled_brightness_on_scr_widget_init(ScreenStruct *, UIView *)
                        0x0801d2ab    0x54  Code  Lc  app_scr_change_oled_brightness.o [1]
app_scr_change_password_callback(ScreenStruct *, UIMsg *)
                        0x0801d13f    0x4c  Code  Lc  app_scr_change_password.o [1]
app_scr_change_password_enter
                        0x0801d18b    0x16  Code  Gb  app_scr_change_password.o [1]
app_scr_change_password_on_press_back_key(KeyID, int)
                        0x0801cf79    0xf0  Code  Lc  app_scr_change_password.o [1]
app_scr_change_password_on_press_ok_key(KeyID, int)
                        0x0801ce1d   0x15c  Code  Lc  app_scr_change_password.o [1]
app_scr_change_password_on_scr_activate(ScreenStruct *, UIView *)
                        0x0801d127    0x18  Code  Lc  app_scr_change_password.o [1]
app_scr_change_password_on_scr_create(ScreenStruct *)
                        0x0801d069     0x2  Code  Lc  app_scr_change_password.o [1]
app_scr_change_password_on_scr_widget_init(ScreenStruct *, UIView *)
                        0x0801d06b    0xbc  Code  Lc  app_scr_change_password.o [1]
app_scr_event_handle_init()
                        0x0801f3db    0x1c  Code  Gb  app_scr_event_handle.o [1]
app_scr_manual_clear_air_callback(ScreenStruct *, UIMsg *)
                        0x08012237    0x94  Code  Lc  app_scr_manual_clear_air.o [1]
app_scr_manual_clear_air_enter
                        0x080122cb    0x16  Code  Gb  app_scr_manual_clear_air.o [1]
app_scr_manual_clear_air_get_show_img(UIView *)
                        0x08011f95    0x1e  Code  Lc  app_scr_manual_clear_air.o [1]
app_scr_manual_clear_air_on_press_back_key(KeyID, int)
                        0x08012101     0xe  Code  Lc  app_scr_manual_clear_air.o [1]
app_scr_manual_clear_air_on_press_left_key(KeyID, int)
                        0x0801213d    0x46  Code  Lc  app_scr_manual_clear_air.o [1]
app_scr_manual_clear_air_on_press_right_key(KeyID, int)
                        0x08012183    0x46  Code  Lc  app_scr_manual_clear_air.o [1]
app_scr_manual_clear_air_on_press_start_key(KeyID, int)
                        0x0801210f    0x2e  Code  Lc  app_scr_manual_clear_air.o [1]
app_scr_manual_clear_air_on_scr_activate(ScreenStruct *, UIView *)
                        0x08012203    0x34  Code  Lc  app_scr_manual_clear_air.o [1]
app_scr_manual_clear_air_on_scr_create(ScreenStruct *)
                        0x080121c9    0x38  Code  Lc  app_scr_manual_clear_air.o [1]
app_scr_manual_clear_air_on_scr_widget_init(ScreenStruct *, UIView *)
                        0x08012201     0x2  Code  Lc  app_scr_manual_clear_air.o [1]
app_scr_manual_clear_air_update_delivery_state(ScreenStruct *)
                        0x080120af    0x52  Code  Lc  app_scr_manual_clear_air.o [1]
app_scr_manual_clear_air_update_view(ScreenStruct *)
                        0x08011fb3    0xfc  Code  Lc  app_scr_manual_clear_air.o [1]
app_scr_on_after_activate(ScreenStruct *)
                        0x0801f389    0x48  Code  Gb  app_scr_event_handle.o [1]
app_scr_on_after_deactivate(ScreenStruct *)
                        0x0801f3d1     0xa  Code  Gb  app_scr_event_handle.o [1]
app_scr_on_before_activate(ScreenStruct *)
                        0x0801f307    0x82  Code  Gb  app_scr_event_handle.o [1]
app_scr_on_hold_power_key(KeyID, int)
                        0x0801f26d    0x16  Code  Gb  app_scr_event_handle.o [1]
app_scr_on_hold_power_key_2s()
                        0x0801f23d    0x26  Code  Gb  app_scr_event_handle.o [1]
app_scr_on_press_key(KeyID, int)
                        0x0801f217     0xc  Code  Gb  app_scr_event_handle.o [1]
app_scr_on_press_or_release_key(KeyID, int, bool)
                        0x0801f199    0x7e  Code  Gb  app_scr_event_handle.o [1]
app_scr_on_press_start_key(KeyID, int)
                        0x0801f283    0x84  Code  Gb  app_scr_event_handle.o [1]
app_scr_on_release_key(KeyID, int)
                        0x0801f223     0xc  Code  Gb  app_scr_event_handle.o [1]
app_scr_on_release_power_key(KeyID, int)
                        0x0801f263     0xa  Code  Gb  app_scr_event_handle.o [1]
app_scr_power_off_confirm_popup_callback(PopupReturnCode)
                        0x0801f22f     0xe  Code  Gb  app_scr_event_handle.o [1]
app_scr_set_date_callback(ScreenStruct *, UIMsg *)
                        0x0801f069    0x4c  Code  Lc  app_scr_set_date.o [1]
app_scr_set_date_enter  0x0801f0b5    0x16  Code  Gb  app_scr_set_date.o [1]
app_scr_set_date_on_press_back_key(KeyID, int)
                        0x0801eb17   0x10e  Code  Lc  app_scr_set_date.o [1]
app_scr_set_date_on_press_left_key(KeyID, int)
                        0x0801edcb   0x17c  Code  Lc  app_scr_set_date.o [1]
app_scr_set_date_on_press_ok_key(KeyID, int)
                        0x0801e995   0x182  Code  Lc  app_scr_set_date.o [1]
app_scr_set_date_on_press_right_key(KeyID, int)
                        0x0801ec25   0x1a6  Code  Lc  app_scr_set_date.o [1]
app_scr_set_date_on_scr_activate(ScreenStruct *, UIView *)
                        0x0801f035    0x34  Code  Lc  app_scr_set_date.o [1]
app_scr_set_date_on_scr_create(ScreenStruct *)
                        0x0801ef47     0x2  Code  Lc  app_scr_set_date.o [1]
app_scr_set_date_on_scr_widget_init(ScreenStruct *, UIView *)
                        0x0801ef49    0xec  Code  Lc  app_scr_set_date.o [1]
app_scr_set_infusion_duration_callback(ScreenStruct *, UIMsg *)
                        0x0801e2e1    0xf0  Code  Lc  app_scr_set_infusion_duration.o [1]
app_scr_set_infusion_duration_enter
                        0x0801e3d1    0x16  Code  Gb  app_scr_set_infusion_duration.o [1]
app_scr_set_infusion_duration_on_press_back_key(KeyID, int)
                        0x0801df5d     0x8  Code  Lc  app_scr_set_infusion_duration.o [1]
app_scr_set_infusion_duration_on_press_left_key(KeyID, int)
                        0x0801df65    0x98  Code  Lc  app_scr_set_infusion_duration.o [1]
app_scr_set_infusion_duration_on_press_ok_key(KeyID, int)
                        0x0801df09    0x54  Code  Lc  app_scr_set_infusion_duration.o [1]
app_scr_set_infusion_duration_on_press_right_key(KeyID, int)
                        0x0801e001   0x1b8  Code  Lc  app_scr_set_infusion_duration.o [1]
app_scr_set_infusion_duration_on_scr_activate(ScreenStruct *, UIView *)
                        0x0801e2b5    0x2c  Code  Lc  app_scr_set_infusion_duration.o [1]
app_scr_set_infusion_duration_on_scr_create(ScreenStruct *)
                        0x0801e1b9     0x2  Code  Lc  app_scr_set_infusion_duration.o [1]
app_scr_set_infusion_duration_on_scr_widget_init(ScreenStruct *, UIView *)
                        0x0801e1bb    0xfa  Code  Lc  app_scr_set_infusion_duration.o [1]
app_scr_set_infusion_duration_on_select_peek_mode(PopupReturnCode, int)
                        0x0801dd15    0x30  Code  Lc  app_scr_set_infusion_duration.o [1]
app_scr_set_infusion_duration_save_para()
                        0x0801dd45    0x76  Code  Lc  app_scr_set_infusion_duration.o [1]
app_scr_set_infusion_duration_update_lable()
                        0x0801ddbb   0x14e  Code  Lc  app_scr_set_infusion_duration.o [1]
app_scr_set_infusion_speed_callback(ScreenStruct *, UIMsg *)
                        0x0801e839    0xf0  Code  Lc  app_scr_set_infusion_speed.o [1]
app_scr_set_infusion_speed_enter
                        0x0801e929    0x16  Code  Gb  app_scr_set_infusion_speed.o [1]
app_scr_set_infusion_speed_on_press_back_key(KeyID, int)
                        0x0801e6a3     0x8  Code  Lc  app_scr_set_infusion_speed.o [1]
app_scr_set_infusion_speed_on_press_left_key(KeyID, int)
                        0x0801e6ab    0x74  Code  Lc  app_scr_set_infusion_speed.o [1]
app_scr_set_infusion_speed_on_press_ok_key(KeyID, int)
                        0x0801e639    0x6a  Code  Lc  app_scr_set_infusion_speed.o [1]
app_scr_set_infusion_speed_on_press_right_key(KeyID, int)
                        0x0801e725    0xc2  Code  Lc  app_scr_set_infusion_speed.o [1]
app_scr_set_infusion_speed_on_scr_activate(ScreenStruct *, UIView *)
                        0x0801e809    0x2c  Code  Lc  app_scr_set_infusion_speed.o [1]
app_scr_set_infusion_speed_on_scr_create(ScreenStruct *)
                        0x0801e7e7     0x2  Code  Lc  app_scr_set_infusion_speed.o [1]
app_scr_set_infusion_speed_on_scr_widget_init(ScreenStruct *, UIView *)
                        0x0801e7e9    0x20  Code  Lc  app_scr_set_infusion_speed.o [1]
app_scr_set_infusion_speed_on_select_peek_mode(PopupReturnCode, int)
                        0x0801e609    0x30  Code  Lc  app_scr_set_infusion_speed.o [1]
app_scr_set_infusion_speed_save_para()
                        0x0801e431    0x78  Code  Lc  app_scr_set_infusion_speed.o [1]
app_scr_set_infusion_speed_update_lable()
                        0x0801e4a9   0x160  Code  Lc  app_scr_set_infusion_speed.o [1]
app_scr_set_max_clean_tube_dose_callback(ScreenStruct *, UIMsg *)
                        0x0801bd7f    0x4c  Code  Lc  app_scr_set_max_clean_tube_dose.o [1]
app_scr_set_max_clean_tube_dose_enter
                        0x0801bdcb    0x16  Code  Gb  app_scr_set_max_clean_tube_dose.o [1]
app_scr_set_max_clean_tube_dose_on_press_back_key(KeyID, int)
                        0x0801bced     0x8  Code  Lc  app_scr_set_max_clean_tube_dose.o [1]
app_scr_set_max_clean_tube_dose_on_press_left_key(KeyID, int)
                        0x0801bc11    0x4a  Code  Lc  app_scr_set_max_clean_tube_dose.o [1]
app_scr_set_max_clean_tube_dose_on_press_ok_key(KeyID, int)
                        0x0801bca5    0x48  Code  Lc  app_scr_set_max_clean_tube_dose.o [1]
app_scr_set_max_clean_tube_dose_on_press_right_key(KeyID, int)
                        0x0801bc5b    0x4a  Code  Lc  app_scr_set_max_clean_tube_dose.o [1]
app_scr_set_max_clean_tube_dose_on_scr_activate(ScreenStruct *, UIView *)
                        0x0801bd53    0x2c  Code  Lc  app_scr_set_max_clean_tube_dose.o [1]
app_scr_set_max_clean_tube_dose_on_scr_create(ScreenStruct *)
                        0x0801bcf5     0x2  Code  Lc  app_scr_set_max_clean_tube_dose.o [1]
app_scr_set_max_clean_tube_dose_on_scr_widget_init(ScreenStruct *, UIView *)
                        0x0801bcf7    0x5c  Code  Lc  app_scr_set_max_clean_tube_dose.o [1]
app_scr_set_peek_mode_duration_callback(ScreenStruct *, UIMsg *)
                        0x08020cf3    0xa6  Code  Lc  app_scr_set_peek_mode_duration.o [1]
app_scr_set_peek_mode_duration_enter
                        0x08020d99    0x16  Code  Gb  app_scr_set_peek_mode_duration.o [1]
app_scr_set_peek_mode_duration_on_press_back_key(KeyID, int)
                        0x08020bcf    0x7c  Code  Lc  app_scr_set_peek_mode_duration.o [1]
app_scr_set_peek_mode_duration_on_press_ok_key(KeyID, int)
                        0x08020b35    0x9a  Code  Lc  app_scr_set_peek_mode_duration.o [1]
app_scr_set_peek_mode_duration_on_scr_activate(ScreenStruct *, UIView *)
                        0x08020cc5    0x2e  Code  Lc  app_scr_set_peek_mode_duration.o [1]
app_scr_set_peek_mode_duration_on_scr_create(ScreenStruct *)
                        0x08020c4b     0x2  Code  Lc  app_scr_set_peek_mode_duration.o [1]
app_scr_set_peek_mode_duration_on_scr_widget_init(ScreenStruct *, UIView *)
                        0x08020c4d    0x78  Code  Lc  app_scr_set_peek_mode_duration.o [1]
app_scr_set_peek_mode_speed_callback(ScreenStruct *, UIMsg *)
                        0x0802260d    0x80  Code  Lc  app_scr_set_peek_mode_speed.o [1]
app_scr_set_peek_mode_speed_enter
                        0x0802268d    0x16  Code  Gb  app_scr_set_peek_mode_speed.o [1]
app_scr_set_peek_mode_speed_on_press_back_key(KeyID, int)
                        0x08022337     0x8  Code  Lc  app_scr_set_peek_mode_speed.o [1]
app_scr_set_peek_mode_speed_on_press_left_key(KeyID, int)
                        0x0802233f    0xde  Code  Lc  app_scr_set_peek_mode_speed.o [1]
app_scr_set_peek_mode_speed_on_press_ok_key(KeyID, int)
                        0x08022301    0x36  Code  Lc  app_scr_set_peek_mode_speed.o [1]
app_scr_set_peek_mode_speed_on_press_right_key(KeyID, int)
                        0x0802241d   0x118  Code  Lc  app_scr_set_peek_mode_speed.o [1]
app_scr_set_peek_mode_speed_on_scr_activate(ScreenStruct *, UIView *)
                        0x080225bb    0x4e  Code  Lc  app_scr_set_peek_mode_speed.o [1]
app_scr_set_peek_mode_speed_on_scr_create(ScreenStruct *)
                        0x08022535     0x2  Code  Lc  app_scr_set_peek_mode_speed.o [1]
app_scr_set_peek_mode_speed_on_scr_widget_init(ScreenStruct *, UIView *)
                        0x08022537    0x84  Code  Lc  app_scr_set_peek_mode_speed.o [1]
app_scr_set_time_callback(ScreenStruct *, UIMsg *)
                        0x0801bb8f    0x4c  Code  Lc  app_scr_set_time.o [1]
app_scr_set_time_enter  0x0801bbdb    0x16  Code  Gb  app_scr_set_time.o [1]
app_scr_set_time_on_press_back_key(KeyID, int)
                        0x0801b86f    0x92  Code  Lc  app_scr_set_time.o [1]
app_scr_set_time_on_press_left_key(KeyID, int)
                        0x0801b901    0xc0  Code  Lc  app_scr_set_time.o [1]
app_scr_set_time_on_press_ok_key(KeyID, int)
                        0x0801b77d    0xf2  Code  Lc  app_scr_set_time.o [1]
app_scr_set_time_on_press_right_key(KeyID, int)
                        0x0801b9c1    0xc0  Code  Lc  app_scr_set_time.o [1]
app_scr_set_time_on_scr_activate(ScreenStruct *, UIView *)
                        0x0801bb5b    0x34  Code  Lc  app_scr_set_time.o [1]
app_scr_set_time_on_scr_create(ScreenStruct *)
                        0x0801ba81     0x2  Code  Lc  app_scr_set_time.o [1]
app_scr_set_time_on_scr_widget_init(ScreenStruct *, UIView *)
                        0x0801ba83    0xd8  Code  Lc  app_scr_set_time.o [1]
app_scr_set_total_dose_callback(ScreenStruct *, UIMsg *)
                        0x08012423    0x7c  Code  Lc  app_scr_set_total_dose.o [1]
app_scr_set_total_dose_enter
                        0x0801249f    0x16  Code  Gb  app_scr_set_total_dose.o [1]
app_scr_set_total_dose_on_press_back_key(KeyID, int)
                        0x0801231f     0x8  Code  Lc  app_scr_set_total_dose.o [1]
app_scr_set_total_dose_on_press_left_key(KeyID, int)
                        0x08012327    0x4e  Code  Lc  app_scr_set_total_dose.o [1]
app_scr_set_total_dose_on_press_ok_key(KeyID, int)
                        0x080122fd    0x22  Code  Lc  app_scr_set_total_dose.o [1]
app_scr_set_total_dose_on_press_right_key(KeyID, int)
                        0x08012375    0x4e  Code  Lc  app_scr_set_total_dose.o [1]
app_scr_set_total_dose_on_scr_activate(ScreenStruct *, UIView *)
                        0x080123f7    0x2c  Code  Lc  app_scr_set_total_dose.o [1]
app_scr_set_total_dose_on_scr_create(ScreenStruct *)
                        0x080123c3     0x2  Code  Lc  app_scr_set_total_dose.o [1]
app_scr_set_total_dose_on_scr_widget_init(ScreenStruct *, UIView *)
                        0x080123c5    0x32  Code  Lc  app_scr_set_total_dose.o [1]
app_scr_set_year_callback(ScreenStruct *, UIMsg *)
                        0x0802195d    0x4c  Code  Lc  app_scr_set_year.o [1]
app_scr_set_year_enter  0x080219a9    0x16  Code  Gb  app_scr_set_year.o [1]
app_scr_set_year_on_press_back_key(KeyID, int)
                        0x08021899     0xc  Code  Lc  app_scr_set_year.o [1]
app_scr_set_year_on_press_ok_key(KeyID, int)
                        0x0802181d    0x7c  Code  Lc  app_scr_set_year.o [1]
app_scr_set_year_on_scr_activate(ScreenStruct *, UIView *)
                        0x08021945    0x18  Code  Lc  app_scr_set_year.o [1]
app_scr_set_year_on_scr_create(ScreenStruct *)
                        0x080218a5     0x2  Code  Lc  app_scr_set_year.o [1]
app_scr_set_year_on_scr_widget_init(ScreenStruct *, UIView *)
                        0x080218a7    0x9e  Code  Lc  app_scr_set_year.o [1]
app_scr_task_confirm_callback(ScreenStruct *, UIMsg *)
                        0x080211fd   0x3e6  Code  Lc  app_scr_task_confirm.o [1]
app_scr_task_confirm_enter
                        0x080215e3    0x16  Code  Gb  app_scr_task_confirm.o [1]
app_scr_task_confirm_on_press_back_key(KeyID, int)
                        0x0802103f     0x8  Code  Lc  app_scr_task_confirm.o [1]
app_scr_task_confirm_on_press_ok_key(KeyID, int)
                        0x08020dd1   0x26e  Code  Lc  app_scr_task_confirm.o [1]
app_scr_task_confirm_on_scr_activate(ScreenStruct *, UIView *)
                        0x080211e1    0x1c  Code  Lc  app_scr_task_confirm.o [1]
app_scr_task_confirm_on_scr_create(ScreenStruct *)
                        0x08021047     0x2  Code  Lc  app_scr_task_confirm.o [1]
app_scr_task_confirm_on_scr_widget_init(ScreenStruct *, UIView *)
                        0x08021049   0x198  Code  Lc  app_scr_task_confirm.o [1]
app_set_menu_callback(ScreenStruct *, UIMsg *)
                        0x08014081   0x124  Code  Lc  app_set_menu.o [1]
app_set_menu_enter      0x080141a5    0x16  Code  Gb  app_set_menu.o [1]
app_set_menu_on_press_back_key(KeyID, int)
                        0x08013fa1     0x8  Code  Lc  app_set_menu.o [1]
app_set_menu_on_press_ok_key(KeyID, int)
                        0x08013ebf    0xe2  Code  Lc  app_set_menu.o [1]
app_set_menu_on_scr_activate(ScreenStruct *, UIView *)
                        0x0801405f    0x18  Code  Lc  app_set_menu.o [1]
app_set_menu_on_scr_create(ScreenStruct *)
                        0x08013fa9     0x2  Code  Lc  app_set_menu.o [1]
app_set_menu_on_scr_widget_init(ScreenStruct *, UIView *)
                        0x08013fab    0xb4  Code  Lc  app_set_menu.o [1]
app_set_menu_on_select_infusion_mode(PopupReturnCode, int)
                        0x08013e59    0x66  Code  Gb  app_set_menu.o [1]
app_set_menu_on_select_infusion_mode_select(PopupReturnCode, int)
                        0x08013e19    0x40  Code  Gb  app_set_menu.o [1]
app_set_menu_on_select_peak_mode(PopupReturnCode, int)
                        0x08013ddd    0x3c  Code  Gb  app_set_menu.o [1]
app_sleep_check_rtc_to_get_rest_time(int, int *)
                        0x08022173    0x2c  Code  Gb  app_sleep.o [1]
app_sleep_diff_secs_from_now_to(int)
                        0x0802214d    0x26  Code  Gb  app_sleep.o [1]
app_sleep_enter         0x080222cf     0xc  Code  Gb  app_sleep.o [1]
app_sleep_enter_and_exit_at
                        0x080222db     0xc  Code  Gb  app_sleep.o [1]
app_sleep_exit          0x080222e7     0x8  Code  Gb  app_sleep.o [1]
app_sleep_run_internal(int)
                        0x0802219f   0x130  Code  Gb  app_sleep.o [1]
app_sst25_test(char const *, char **, int)
                        0x08001b81    0x8e  Code  Lc  app_cmd.o [1]
app_system_monitor_check()
                        0x0800d0b1    0x14  Code  Gb  app_system_monitor.o [1]
app_system_monitor_check_battery_status()
                        0x0800ced9    0xa6  Code  Gb  app_system_monitor.o [1]
app_system_monitor_check_key_stuck()
                        0x0800cf7f    0x46  Code  Gb  app_system_monitor.o [1]
app_system_monitor_check_no_operate()
                        0x0800d009    0x30  Code  Gb  app_system_monitor.o [1]
app_system_monitor_check_pill_box_install()
                        0x0800d039    0x78  Code  Gb  app_system_monitor.o [1]
app_system_monitor_no_operate_timer_out()
                        0x0800cfc5    0x44  Code  Gb  app_system_monitor.o [1]
app_system_monitor_set_no_operate_time(int)
                        0x0800d115    0x1c  Code  Gb  app_system_monitor.o [1]
app_system_monitor_set_to_default_no_operate_time()
                        0x0800d175     0xc  Code  Gb  app_system_monitor.o [1]
app_system_monitor_start()
                        0x0800d0c5    0x3c  Code  Gb  app_system_monitor.o [1]
app_system_monitor_stop()
                        0x0800d101    0x14  Code  Gb  app_system_monitor.o [1]
app_update_battery_and_ac_icon()
                        0x0801fc35    0x52  Code  Gb  app_msg_handle.o [1]
app_wait_key_press_to_start_up
                        0x080160b1    0x42  Code  Gb  app_startup_and_post.o [1]
atoi                    0x08002783     0x8  Code  Gb  atoi.o [3]
battery_level           0x080050d5     0x6  Code  Gb  mid_common.o [1]
battery_low_alarm()     0x080207a9    0x26  Code  Gb  app_infusion_monitor.o [1]
com_crc16(unsigned char *, unsigned char)
                        0x08002a31    0x42  Code  Gb  app_mcu_comm.o [1]
com_handle_new_byte     0x0800240f    0x60  Code  Gb  com.o [1]
com_handle_new_received_data
                        0x080023c5    0x4a  Code  Gb  com.o [1]
com_init_by_file        0x0800248f     0xa  Code  Gb  com.o [1]
com_set_receive_handler
                        0x0800246f    0x16  Code  Gb  com.o [1]
com_to_file             0x08002485     0xa  Code  Gb  com.o [1]
cpu_usage_enter_idle    0x080034a9     0xa  Code  Gb  cpu_usage.o [1]
cpu_usage_exit_idle     0x080034b3    0x56  Code  Gb  cpu_usage.o [1]
cpu_usage_print_if_large_than
                        0x08003365   0x12e  Code  Gb  cpu_usage.o [1]
cpu_usage_reset_usage   0x08003493    0x16  Code  Gb  cpu_usage.o [1]
data_clear_by_data_type
                        0x08004e39    0x28  Code  Gb  data.o [1]
data_default_block      0x08004d35    0x5e  Code  Gb  data.o [1]
data_default_by_data_type
                        0x08004e8b    0x28  Code  Gb  data.o [1]
data_delay_to_flush     0x08004f6b     0x8  Code  Gb  data.o [1]
data_erase_block        0x08004cf1    0x44  Code  Gb  data.o [1]
data_fill_block_with    0x08004d93    0x5e  Code  Gb  data.o [1]
data_find_save_info_at_block
                        0x080048f3    0xaa  Code  Gb  data.o [1]
data_find_save_info_by_id
                        0x0800499d    0x90  Code  Gb  data.o [1]
data_first_init_if_need
                        0x08004eb3    0xb8  Code  Gb  data.o [1]
data_flush              0x08004df1    0x48  Code  Gb  data.o [1]
data_id_to_block_map_index
                        0x08004895    0x5e  Code  Gb  data.o [1]
data_init               0x08004f73   0x11e  Code  Gb  data.o [1]
data_nvram              0x08004a2d     0x6  Code  Gb  data.o [1]
data_on_read_error      0x08004a33    0xbc  Code  Gb  data.o [1]
data_on_write_error     0x08004aef    0x5c  Code  Gb  data.o [1]
data_read               0x08004bb3     0xc  Code  Gb  data.o [1]
data_read_ex            0x08004b51    0x62  Code  Gb  data.o [1]
data_read_int           0x08004c41    0x7a  Code  Gb  data.o [1]
data_write              0x08004c35     0xc  Code  Gb  data.o [1]
data_write_ex           0x08004bbf    0x76  Code  Gb  data.o [1]
data_write_int          0x08004cbb    0x36  Code  Gb  data.o [1]
data_zero_by_data_type  0x08004e61    0x2a  Code  Gb  data.o [1]
dev_init                0x08018389     0x2  Code  Gb  dev_def.o [1]
digits                  0x0800e118    0x28  Data  Lc  xstoul.o [3]
display_close           0x0800719d    0x1a  Code  Gb  display.o [1]
display_data_at         0x0800727b    0x7e  Code  Gb  display.o [1]
display_data_standard   0x080071b7    0xc4  Code  Gb  display.o [1]
display_flush           0x0800706d    0x82  Code  Gb  display.o [1]
display_flush_dirty     0x080070ef    0x2e  Code  Gb  display.o [1]
display_init            0x080072f9     0xc  Code  Gb  display.o [1]
display_open            0x0800717f    0x1e  Code  Gb  display.o [1]
display_set_dirty       0x0800711d    0x62  Code  Gb  display.o [1]
div                     0x0801a069     0xe  Code  Gb  div.o [3]
do_before_main_loop     0x0800adb5    0xba  Code  Gb  do_before_main_loop.o [1]
dose_to_encoder         0x08005421    0x14  Code  Gb  param.o [1]
drv_all_5v_pwr_disable  0x080040dd    0x10  Code  Gb  drv_stf_motor.o [1]
drv_all_5v_pwr_enable   0x080040cd    0x10  Code  Gb  drv_stf_motor.o [1]
drv_all_led_off         0x0800b00f    0x2e  Code  Gb  drv_lowpower.o [1]
drv_all_motor_pwr_disable
                        0x080040bd    0x10  Code  Gb  drv_stf_motor.o [1]
drv_all_motor_pwr_enable
                        0x080040ad    0x10  Code  Gb  drv_stf_motor.o [1]
drv_bt_pwr_disable      0x0800afdf    0x10  Code  Gb  drv_lowpower.o [1]
drv_com_file            0x08017fdf     0xa  Code  Gb  drv_com.o [1]
drv_com_file_ctl        0x0801805b    0x1e  Code  Lc  drv_com.o [1]
drv_com_file_read       0x08017fe9    0x48  Code  Lc  drv_com.o [1]
drv_com_file_write      0x08018031    0x2a  Code  Lc  drv_com.o [1]
drv_com_init            0x08018079   0x15c  Code  Gb  drv_com.o [1]
drv_com_on_receive_one_byte
                        0x08017fb1    0x2e  Code  Gb  drv_com.o [1]
drv_config_gpio_for_low_power
                        0x0800b23f   0x1fe  Code  Gb  drv_lowpower.o [1]
drv_enter_low_power_colse_clock
                        0x0800b03d   0x192  Code  Gb  drv_lowpower.o [1]
drv_infusion_motor_brake
                        0x0800a819    0x1c  Code  Gb  drv_infusion_motor.o [1]
drv_infusion_motor_change_IN1_as_GPIO
                        0x0800a765    0x44  Code  Gb  drv_infusion_motor.o [1]
drv_infusion_motor_change_IN1_as_PWM
                        0x0800a7a9    0x38  Code  Gb  drv_infusion_motor.o [1]
drv_infusion_motor_change_duty_cycle
                        0x0800a851     0x6  Code  Gb  drv_infusion_motor.o [1]
drv_infusion_motor_inertial_stop
                        0x0800a835    0x1c  Code  Gb  drv_infusion_motor.o [1]
drv_infusion_motor_init
                        0x0800a857     0xe  Code  Gb  drv_infusion_motor.o [1]
drv_infusion_motor_move_backward
                        0x0800a7fd    0x1c  Code  Gb  drv_infusion_motor.o [1]
drv_infusion_motor_move_forward
                        0x0800a7e1    0x1c  Code  Gb  drv_infusion_motor.o [1]
drv_infusion_motor_sleep_disable
                        0x0800a757     0xe  Code  Gb  drv_infusion_motor.o [1]
drv_infusion_motor_sleep_enable
                        0x0800a749     0xe  Code  Gb  drv_infusion_motor.o [1]
drv_isd2360_cmd_powerdown
                        0x08009aad    0x28  Code  Gb  drv_isd2360.o [1]
drv_isd2360_cmd_powerup
                        0x08009a85    0x28  Code  Gb  drv_isd2360.o [1]
drv_isd2360_deinitial   0x080099db    0x12  Code  Gb  drv_isd2360.o [1]
drv_isd2360_exe_voice_macros
                        0x08009b23    0x4e  Code  Gb  drv_isd2360.o [1]
drv_isd2360_initial     0x0800998f    0x4c  Code  Gb  drv_isd2360.o [1]
drv_isd2360_mcu_io_as_analog
                        0x08009bf9    0x1c  Code  Gb  drv_isd2360.o [1]
drv_isd2360_mcu_io_as_gpio
                        0x08009bcf    0x2a  Code  Gb  drv_isd2360.o [1]
drv_isd2360_pcb_power_disable
                        0x08009bb3     0xe  Code  Gb  drv_isd2360.o [1]
drv_isd2360_pcb_power_enable
                        0x08009bc1     0xe  Code  Gb  drv_isd2360.o [1]
drv_isd2360_play_state  0x08009a61    0x24  Code  Gb  drv_isd2360.o [1]
drv_isd2360_play_voice_prompts
                        0x08009ad5    0x4e  Code  Gb  drv_isd2360.o [1]
drv_isd2360_read_id     0x080099ed    0x74  Code  Lc  drv_isd2360.o [1]
drv_isd2360_select_slave
                        0x08009911    0x14  Code  Lc  drv_isd2360.o [1]
drv_isd2360_setvolume   0x08009ba5     0xe  Code  Gb  drv_isd2360.o [1]
drv_isd2360_spi_read_write_one_byte
                        0x08009973    0x1c  Code  Gb  drv_isd2360.o [1]
drv_isd2360_stop        0x08009b71    0x34  Code  Gb  drv_isd2360.o [1]
drv_isd2360_voice_disable_cs
                        0x08009927     0x2  Code  Lc  drv_isd2360.o [1]
drv_isd2360_voice_enable_cs
                        0x08009925     0x2  Code  Lc  drv_isd2360.o [1]
drv_isd2360_writecfgreg
                        0x08009929    0x4a  Code  Lc  drv_isd2360.o [1]
drv_key_is_high         0x08004299    0x26  Code  Gb  drv_key.o [1]
drv_key_is_pressed      0x08004289    0x10  Code  Gb  drv_key.o [1]
drv_key_scan            0x0800426d    0x1c  Code  Gb  drv_key.o [1]
drv_lowpower_enter_lpsleep
                        0x0800b459   0x140  Code  Gb  drv_lowpower.o [1]
drv_lowpower_exit_lpsleep
                        0x0800b599    0x94  Code  Gb  drv_lowpower.o [1]
drv_lowpower_gpio_set_to_lowest_current
                        0x0800b1cf     0xc  Code  Gb  drv_lowpower.o [1]
drv_lowpower_pcb_peripheral_power_disable
                        0x0800b1db    0x64  Code  Gb  drv_lowpower.o [1]
drv_lowpower_sleep_slaver
                        0x0800b43d    0x14  Code  Gb  drv_lowpower.o [1]
drv_lowpower_wakeup_slaver
                        0x0800b451     0x8  Code  Gb  drv_lowpower.o [1]
drv_oled_clear_all_screen
                        0x0800a0fd    0x38  Code  Gb  drv_oled.o [1]
drv_oled_command_lock_mode
                        0x08009e0b    0x18  Code  Gb  drv_oled.o [1]
drv_oled_conmmand_unlock
                        0x08009e23     0xa  Code  Gb  drv_oled.o [1]
drv_oled_cs_dis         0x08009d15    0x12  Code  Gb  drv_oled.o [1]
drv_oled_cs_en          0x08009d03    0x12  Code  Gb  drv_oled.o [1]
drv_oled_deinit         0x0800a0f5     0x8  Code  Gb  drv_oled.o [1]
drv_oled_display_all_screen
                        0x0800a135    0x38  Code  Gb  drv_oled.o [1]
drv_oled_function_selection
                        0x08009ee9    0x18  Code  Gb  drv_oled.o [1]
drv_oled_init           0x0800a021    0xd4  Code  Gb  drv_oled.o [1]
drv_oled_pwr_dis        0x08009cf3    0x10  Code  Gb  drv_oled.o [1]
drv_oled_pwr_en         0x08009ce3    0x10  Code  Gb  drv_oled.o [1]
drv_oled_rest_dis       0x08009d37    0x10  Code  Gb  drv_oled.o [1]
drv_oled_rest_en        0x08009d27    0x10  Code  Gb  drv_oled.o [1]
drv_oled_select_default_linear_gray_scale_table
                        0x08009f6d     0xc  Code  Gb  drv_oled.o [1]
drv_oled_set_MUX_ratio  0x08009fd9    0x18  Code  Gb  drv_oled.o [1]
drv_oled_set_Re_map_and_Dual_COM_line_mode
                        0x08009e95    0x24  Code  Gb  drv_oled.o [1]
drv_oled_set_Vcomh      0x08009f91    0x18  Code  Gb  drv_oled.o [1]
drv_oled_set_column_start_end_addr
                        0x08009e4d    0x24  Code  Gb  drv_oled.o [1]
drv_oled_set_contrast_current
                        0x08009fa9    0x18  Code  Gb  drv_oled.o [1]
drv_oled_set_display_enhancement_A
                        0x08009f31    0x24  Code  Gb  drv_oled.o [1]
drv_oled_set_display_enhancement_B
                        0x08009ff1    0x24  Code  Gb  drv_oled.o [1]
drv_oled_set_display_mode
                        0x0800a015     0xc  Code  Gb  drv_oled.o [1]
drv_oled_set_display_offset
                        0x08009ed1    0x18  Code  Gb  drv_oled.o [1]
drv_oled_set_display_start_line
                        0x08009eb9    0x18  Code  Gb  drv_oled.o [1]
drv_oled_set_front_clock_divider_or_oscillator_frequency
                        0x08009f19    0x18  Code  Gb  drv_oled.o [1]
drv_oled_set_master_contrast_current_control
                        0x08009fc1    0x18  Code  Gb  drv_oled.o [1]
drv_oled_set_phase_length
                        0x08009f01    0x18  Code  Gb  drv_oled.o [1]
drv_oled_set_pos        0x0800a16d    0x2e  Code  Gb  drv_oled.o [1]
drv_oled_set_pre_charge_voltage
                        0x08009f79    0x18  Code  Gb  drv_oled.o [1]
drv_oled_set_row_start_end_addr
                        0x08009e71    0x24  Code  Gb  drv_oled.o [1]
drv_oled_set_second_precharge_period
                        0x08009f55    0x18  Code  Gb  drv_oled.o [1]
drv_oled_sim_spi_write  0x08009c31    0xa2  Code  Gb  drv_oled.o [1]
drv_oled_sleep_mode     0x08009e2d     0xc  Code  Gb  drv_oled.o [1]
drv_oled_sleep_off      0x08009e43     0xa  Code  Gb  drv_oled.o [1]
drv_oled_sleep_on       0x08009e39     0xa  Code  Gb  drv_oled.o [1]
drv_oled_spi_write      0x08009cd3    0x10  Code  Gb  drv_oled.o [1]
drv_oled_write_RAM_en   0x0800a19b     0xc  Code  Gb  drv_oled.o [1]
drv_oled_write_bytes    0x0800a1a7     0xa  Code  Gb  drv_oled.o [1]
drv_oled_write_command  0x08009d67    0x38  Code  Gb  drv_oled.o [1]
drv_oled_write_command_mode
                        0x08009d47    0x10  Code  Gb  drv_oled.o [1]
drv_oled_write_data     0x08009d9f    0x38  Code  Gb  drv_oled.o [1]
drv_oled_write_data_mode
                        0x08009d57    0x10  Code  Gb  drv_oled.o [1]
drv_oled_write_datas    0x08009dd7    0x34  Code  Gb  drv_oled.o [1]
drv_rtc_get_time_all    0x08003bb5    0xf4  Code  Gb  drv_rtc.o [1]
drv_rtc_get_time_individually
                        0x0800398b   0x126  Code  Gb  drv_rtc.o [1]
drv_rtc_init            0x08003851    0x3a  Code  Gb  drv_rtc.o [1]
drv_rtc_lowest_pwr_mode
                        0x0800afef    0x20  Code  Gb  drv_lowpower.o [1]
drv_rtc_set_time_all    0x08003ab1   0x104  Code  Gb  drv_rtc.o [1]
drv_rtc_set_time_individually
                        0x080038b9    0xd2  Code  Gb  drv_rtc.o [1]
drv_rtc_start           0x0800388b    0x1c  Code  Gb  drv_rtc.o [1]
drv_rtc_stop            0x080038a7    0x12  Code  Gb  drv_rtc.o [1]
drv_sst25_flash_disable_Protected
                        0x08005ffb    0x40  Code  Lc  drv_sst25_flash.o [1]
drv_sst25_flash_disable_cs
                        0x08005fa7    0x12  Code  Lc  drv_sst25_flash.o [1]
drv_sst25_flash_enable_cs
                        0x08005f95    0x12  Code  Lc  drv_sst25_flash.o [1]
drv_sst25_flash_enable_write
                        0x0800605d    0x26  Code  Lc  drv_sst25_flash.o [1]
drv_sst25_flash_erase_chip
                        0x080062ef    0x2a  Code  Gb  drv_sst25_flash.o [1]
drv_sst25_flash_erase_one_unit
                        0x0800629f    0x50  Code  Gb  drv_sst25_flash.o [1]
drv_sst25_flash_file    0x080064a7     0x4  Code  Gb  drv_sst25_flash.o [1]
drv_sst25_flash_file_ctl
                        0x08006449    0x5e  Code  Lc  drv_sst25_flash.o [1]
drv_sst25_flash_file_read
                        0x080063f1    0x2c  Code  Lc  drv_sst25_flash.o [1]
drv_sst25_flash_file_write
                        0x0800641d    0x2c  Code  Lc  drv_sst25_flash.o [1]
drv_sst25_flash_init    0x080063ab    0x46  Code  Gb  drv_sst25_flash.o [1]
drv_sst25_flash_is_busy
                        0x0800603b     0xe  Code  Gb  drv_sst25_flash.o [1]
drv_sst25_flash_read    0x08006083    0x68  Code  Gb  drv_sst25_flash.o [1]
drv_sst25_flash_read_id
                        0x08006359    0x52  Code  Gb  drv_sst25_flash.o [1]
drv_sst25_flash_read_jedec
                        0x08006319    0x40  Code  Gb  drv_sst25_flash.o [1]
drv_sst25_flash_read_status
                        0x08005fcd    0x2e  Code  Gb  drv_sst25_flash.o [1]
drv_sst25_flash_wait_idle
                        0x08006049    0x14  Code  Gb  drv_sst25_flash.o [1]
drv_sst25_flash_write   0x08006245    0x5a  Code  Gb  drv_sst25_flash.o [1]
drv_sst25_flash_write_at_one_page
                        0x080061f1    0x54  Code  Gb  drv_sst25_flash.o [1]
drv_sst25_flash_write_buff
                        0x08006147    0xaa  Code  Gb  drv_sst25_flash.o [1]
drv_sst25_flash_write_one_byte
                        0x080060eb    0x5c  Code  Gb  drv_sst25_flash.o [1]
drv_sst25_pcb_sleep_disable
                        0x08005f83    0x12  Code  Gb  drv_sst25_flash.o [1]
drv_sst25_pcb_sleep_enable
                        0x08005f71    0x12  Code  Gb  drv_sst25_flash.o [1]
drv_sst25_select_slave  0x08005fb9    0x14  Code  Lc  drv_sst25_flash.o [1]
drv_three_valve_is_pos_a_detected
                        0x080041f9    0x18  Code  Gb  drv_stf_motor.o [1]
drv_three_valve_is_pos_b_detected
                        0x08004211    0x18  Code  Gb  drv_stf_motor.o [1]
drv_three_valve_motor_brake
                        0x0800419d    0x20  Code  Gb  drv_stf_motor.o [1]
drv_three_valve_motor_change_IN1_as_GPIO
                        0x08003fe9    0x44  Code  Gb  drv_stf_motor.o [1]
drv_three_valve_motor_change_IN1_as_PWM
                        0x0800402d    0x1e  Code  Gb  drv_stf_motor.o [1]
drv_three_valve_motor_change_IN2_as_GPIO
                        0x0800404b    0x44  Code  Gb  drv_stf_motor.o [1]
drv_three_valve_motor_change_IN2_as_PWM
                        0x0800408f    0x1e  Code  Gb  drv_stf_motor.o [1]
drv_three_valve_motor_change_duty_cycle_to_a
                        0x08004229     0x6  Code  Gb  drv_stf_motor.o [1]
drv_three_valve_motor_change_duty_cycle_to_b
                        0x0800422f     0x6  Code  Gb  drv_stf_motor.o [1]
drv_three_valve_motor_inertial_stop
                        0x080041bd    0x20  Code  Gb  drv_stf_motor.o [1]
drv_three_valve_motor_init
                        0x08004235    0x14  Code  Gb  drv_stf_motor.o [1]
drv_three_valve_motor_move_backward
                        0x08004141    0x1c  Code  Gb  drv_stf_motor.o [1]
drv_three_valve_motor_move_backward_ex
                        0x0800417d    0x20  Code  Gb  drv_stf_motor.o [1]
drv_three_valve_motor_move_forward
                        0x08004125    0x1c  Code  Gb  drv_stf_motor.o [1]
drv_three_valve_motor_move_forward_ex
                        0x0800415d    0x20  Code  Gb  drv_stf_motor.o [1]
drv_three_valve_motor_pwr_disable
                        0x080040fb     0xe  Code  Gb  drv_stf_motor.o [1]
drv_three_valve_motor_pwr_enable
                        0x080040ed     0xe  Code  Gb  drv_stf_motor.o [1]
drv_three_valve_motor_sleep_disable
                        0x08004117     0xe  Code  Gb  drv_stf_motor.o [1]
drv_three_valve_motor_sleep_enable
                        0x08004109     0xe  Code  Gb  drv_stf_motor.o [1]
drv_three_valve_pos_detect_pwr_disable
                        0x080041eb     0xe  Code  Gb  drv_stf_motor.o [1]
drv_three_valve_pos_detect_pwr_enable
                        0x080041dd     0xe  Code  Gb  drv_stf_motor.o [1]
dtimer_handle_all_timer
                        0x08015efd     0xa  Code  Gb  dtimer.o [1]
dtimer_start_scan_timer
                        0x08015f07    0x22  Code  Gb  dtimer.o [1]
dtimer_stop_scan_timer  0x08015f29     0xa  Code  Gb  dtimer.o [1]
encoder_to_dose         0x08005435    0x10  Code  Gb  param.o [1]
encoder_to_dose_float   0x08005445    0x2c  Code  Gb  param.o [1]
enter_factory_mode()    0x0800aa1b    0x12  Code  Gb  app_common.o [1]
event_clear             0x080115e9     0xc  Code  Gb  event.o [1]
event_handle            0x08011615    0x1a  Code  Gb  event.o [1]
event_is_set            0x080115f5    0x16  Code  Gb  event.o [1]
event_set               0x080115dd     0xc  Code  Gb  event.o [1]
event_set_handler       0x0801160b     0xa  Code  Gb  event.o [1]
exit                    0x0802d0eb     0x4  Code  Gb  exit.o [3]
exit_factory_mode()     0x0800aa2d    0x12  Code  Gb  app_common.o [1]
fit_line_by_data(int *, int *, int)
                        0x0800abb5   0x198  Code  Gb  app_common.o [1]
font_data_select_by_lang
                        0x0801a9b5    0x2a  Code  Gb  font_data.o [1]
g_ISD2360_RegAdd_ChannelControl
                        0x08004892     0x1  Data  Lc  drv_isd2360.o [1]
g_alarm_last_play_type  0x200000a4     0x1  Data  Lc  alarm_play.o [1]
g_alloc_alternative_popup_objs
                        0x20006bb0    0x78  Data  Lc  simple_alloc_config.o [1]
g_alloc_popup_objs      0x20006b38    0x78  Data  Lc  simple_alloc_config.o [1]
g_alloc_tip_popup_objs  0x20006c98    0x70  Data  Lc  simple_alloc_config.o [1]
g_alternative_popup_widgets
                        0x08029394    0x3c  Data  Lc  app_alternative_popup.o [1]
g_app_cmd_cmd_return_id
                        0x0800472b     0x1  Data  Lc  app_cmd.o [1]
g_app_cmd_info          0x080238d8   0x318  Data  Lc  app_cmd.o [1]
g_app_cmd_info_ptr      0x20007a10     0x4  Data  Lc  app_cmd.o [1]
g_app_cmd_is_enable_cmd
                        0x20007bdb     0x1  Data  Lc  app_cmd.o [1]
g_app_cmd_is_enable_show_input
                        0x20007bdc     0x1  Data  Lc  app_cmd.o [1]
g_app_cmd_last_receive_str
                        0x200072e4    0x3c  Data  Lc  app_cmd.o [1]
g_app_cmd_receive_index
                        0x20007a0c     0x4  Data  Lc  app_cmd.o [1]
g_app_cmd_receive_str   0x200072a8    0x3c  Data  Lc  app_cmd.o [1]
g_app_cmd_wait_line_end
                        0x20007bdd     0x1  Data  Lc  app_cmd.o [1]
g_app_comm_receive      0x20007320    0x3c  Data  Lc  app_mcu_comm.o [1]
g_app_comm_receive_index
                        0x20007a90     0x4  Data  Lc  app_mcu_comm.o [1]
g_app_last_highest_alarm
                        0x200000a5     0x1  Data  Lc  app_alarm_event_handle.o [1]
g_ask_popup_widgets     0x0802e1d4    0x10  Data  Lc  app_popup.o [1]
g_backup_tmp_buff_when_write_flash
                        0x200034b0  0x1000  Data  Lc  ssz_common.o [1]
g_battery_calibration_last_show_value
                        0x20007b34     0x4  Data  Lc  scr_battery_calibration.o [1]
g_battery_calibration_widgets
                        0x08028608    0x74  Data  Lc  scr_battery_calibration.o [1]
g_battery_is_empty      0x20007bfe     0x1  Data  Lc  mid_common.o [1]
g_battery_is_low        0x20007bfd     0x1  Data  Lc  mid_common.o [1]
g_battery_offset_ad     0x20007b2c     0x4  Data  Gb  param.o [1]
g_buff                  0x200074e4    0x34  Data  Lc  scr_new_pressure_calibration.o [1]
g_buff                  0x20007778    0x20  Data  Lc  scr_precision_calibration.o [1]
g_com_files             0x20007990     0xc  Data  Lc  com.o [1]
g_com_receive_handlers  0x20007714    0x24  Data  Lc  com.o [1]
g_combination_key_infos
                        0x20007578    0x30  Data  Lc  key.o [1]
g_combination_key_monitor_funs
                        0x200079e4     0x8  Data  Lc  key.o [1]
g_common_tmp_buff       0x200055b4   0x200  Data  Lc  ssz_common.o [1]
g_cpu_usage_idle_start_time
                        0x200079c4     0x8  Data  Gb  cpu_usage.o [1]
g_cpu_usage_idle_time   0x20007ab4     0x4  Data  Gb  cpu_usage.o [1]
g_cpu_usage_idle_value_of_systick
                        0x20007ab8     0x4  Data  Gb  cpu_usage.o [1]
g_cpu_usage_start_time  0x200079bc     0x8  Data  Gb  cpu_usage.o [1]
g_crc32_table           0x080234d8   0x400  Data  Lc  ssz_algorithm.o [1]
g_curr_delivery_bag     0x20007be4     0x1  Data  Gb  app_delivery.o [1]
g_curr_delivery_except_encoder
                        0x20007a20     0x4  Data  Gb  app_delivery.o [1]
g_curr_delivery_speed   0x20007a24     0x4  Data  Gb  app_delivery.o [1]
g_curr_infusion_type    0x20007be3     0x1  Data  Gb  app_delivery.o [1]
g_current_battery_level
                        0x200000ab     0x1  Data  Gb  param.o [1]
g_current_is_use_extern_power
                        0x20007bff     0x1  Data  Gb  param.o [1]
g_cursor                0x2000002c     0x4  Data  Lc  app_scr_set_peek_mode_duration.o [1]
g_data_block_files      0x200066a4    0xc0  Data  Lc  data.o [1]
g_data_block_map        0x08028588    0x80  Data  Lc  data.o [1]
g_data_block_record_inter
                        0x2000598c   0x1c0  Data  Lc  data.o [1]
g_data_child_map        0x08027940    0xb8  Data  Lc  data.o [1]
g_data_factory_block_cache
                        0x200075a8    0x2c  Data  Gb  data.o [1]
g_data_fct_block_cache  0x2000799c     0xc  Data  Gb  data.o [1]
g_data_file_nvram       0x20007838    0x14  Data  Lc  data.o [1]
g_data_infusion_info_block_cache
                        0x200070e8    0x40  Data  Gb  data.o [1]
g_data_set_infusion_para_block_cache
                        0x20007758    0x20  Data  Gb  data.o [1]
g_data_user_block_cache
                        0x200077b4    0x1c  Data  Gb  data.o [1]
g_display_cache         0x200014b0  0x2000  Data  Lc  display.o [1]
g_display_dirty_rect    0x200079cc     0x8  Data  Lc  display.o [1]
g_display_is_dirty      0x20007bef     0x1  Data  Lc  display.o [1]
g_display_is_opened     0x20007bf0     0x1  Data  Lc  display.o [1]
g_drv_bt_uart_recv_buff
                        0x20007168    0x40  Data  Lc  drv_com.o [1]
g_drv_com_file          0x20007808    0x18  Data  Lc  drv_com.o [1]
g_drv_com_info          0x20006d08    0x6c  Data  Lc  drv_com.o [1]
g_drv_lowpower_is_need_hold_led_and_voice
                        0x20007bf4     0x1  Data  Gb  drv_lowpower.o [1]
g_drv_lowpower_is_slaver_wake_up
                        0x20007bf3     0x1  Data  Gb  drv_lowpower.o [1]
g_drv_lowpower_wake_up_by_time
                        0x20007bf2     0x1  Data  Gb  drv_lowpower.o [1]
g_drv_mcu_uart_recv_buff
                        0x200062f0   0x100  Data  Lc  drv_com.o [1]
g_drv_pc_uart_recv_buff
                        0x20007128    0x40  Data  Lc  drv_com.o [1]
g_dtimer_manager        0x20007934    0x10  Data  Lc  dtimer.o [1]
g_dtimer_manager_nodes  0x20007674    0x28  Data  Lc  dtimer.o [1]
g_dynamic_strs          0x20005cdc   0x180  Data  Lc  string_data.o [1]
g_encoder_count_of_one_ml
                        0x20000078     0x4  Data  Gb  param.o [1]
g_event_handlers        0x20007518    0x30  Data  Lc  event.o [1]
g_events                0x20007548    0x30  Data  Gb  event.o [1]
g_factory_mode_items    0x0802ee00     0xc  Data  Lc  scr_factory_mode.o [1]
g_factory_mode_widgets  0x08002ffa     0x2  Data  Lc  scr_factory_mode.o [1]
g_factory_password      0x20007b48     0x4  Data  Gb  scr_password_popup.o [1]
g_font_data_ptr         0x20007acc     0x4  Data  Lc  font_data.o [1]
g_font_data_simplified_chinese
                        0x08029f18    0x30  Data  Lc  font_data.o [1]
g_font_dengxian_regular_14
                        0x0802eda0     0xc  Data  Gb  dengxian_regular_14.o [1]
g_font_dengxian_regular_14_0x0020
                        0x0802e244    0x10  Data  Gb  dengxian_regular_14.o [1]
g_font_dengxian_regular_14_0x0021
                        0x0802e254    0x10  Data  Gb  dengxian_regular_14.o [1]
g_font_dengxian_regular_14_0x0025
                        0x0802e264    0x10  Data  Gb  dengxian_regular_14.o [1]
g_font_dengxian_regular_14_0x0028
                        0x0802e274    0x10  Data  Gb  dengxian_regular_14.o [1]
g_font_dengxian_regular_14_0x0029
                        0x0802e284    0x10  Data  Gb  dengxian_regular_14.o [1]
g_font_dengxian_regular_14_0x002b
                        0x0802b600    0x1c  Data  Gb  dengxian_regular_14.o [1]
g_font_dengxian_regular_14_0x002c
                        0x0802e294    0x10  Data  Gb  dengxian_regular_14.o [1]
g_font_dengxian_regular_14_0x002d
                        0x0802e2a4    0x10  Data  Gb  dengxian_regular_14.o [1]
g_font_dengxian_regular_14_0x002e
                        0x0802e2b4    0x10  Data  Gb  dengxian_regular_14.o [1]
g_font_dengxian_regular_14_0x002f
                        0x0802e2c4    0x10  Data  Gb  dengxian_regular_14.o [1]
g_font_dengxian_regular_14_0x0030
                        0x0802e2d4    0x10  Data  Gb  dengxian_regular_14.o [1]
g_font_dengxian_regular_14_0x0031
                        0x0802e2e4    0x10  Data  Gb  dengxian_regular_14.o [1]
g_font_dengxian_regular_14_0x0032
                        0x0802e2f4    0x10  Data  Gb  dengxian_regular_14.o [1]
g_font_dengxian_regular_14_0x0033
                        0x0802e304    0x10  Data  Gb  dengxian_regular_14.o [1]
g_font_dengxian_regular_14_0x0034
                        0x0802e314    0x10  Data  Gb  dengxian_regular_14.o [1]
g_font_dengxian_regular_14_0x0035
                        0x0802e324    0x10  Data  Gb  dengxian_regular_14.o [1]
g_font_dengxian_regular_14_0x0036
                        0x0802e334    0x10  Data  Gb  dengxian_regular_14.o [1]
g_font_dengxian_regular_14_0x0037
                        0x0802e344    0x10  Data  Gb  dengxian_regular_14.o [1]
g_font_dengxian_regular_14_0x0038
                        0x0802e354    0x10  Data  Gb  dengxian_regular_14.o [1]
g_font_dengxian_regular_14_0x0039
                        0x0802e364    0x10  Data  Gb  dengxian_regular_14.o [1]
g_font_dengxian_regular_14_0x003a
                        0x0802e374    0x10  Data  Gb  dengxian_regular_14.o [1]
g_font_dengxian_regular_14_0x003f
                        0x0802e384    0x10  Data  Gb  dengxian_regular_14.o [1]
g_font_dengxian_regular_14_0x0041
                        0x0802e394    0x10  Data  Gb  dengxian_regular_14.o [1]
g_font_dengxian_regular_14_0x0042
                        0x0802e3a4    0x10  Data  Gb  dengxian_regular_14.o [1]
g_font_dengxian_regular_14_0x0043
                        0x0802e3b4    0x10  Data  Gb  dengxian_regular_14.o [1]
g_font_dengxian_regular_14_0x0044
                        0x0802b61c    0x1c  Data  Gb  dengxian_regular_14.o [1]
g_font_dengxian_regular_14_0x0045
                        0x0802e3c4    0x10  Data  Gb  dengxian_regular_14.o [1]
g_font_dengxian_regular_14_0x0046
                        0x0802e3d4    0x10  Data  Gb  dengxian_regular_14.o [1]
g_font_dengxian_regular_14_0x0047
                        0x0802b638    0x1c  Data  Gb  dengxian_regular_14.o [1]
g_font_dengxian_regular_14_0x0048
                        0x0802b654    0x1c  Data  Gb  dengxian_regular_14.o [1]
g_font_dengxian_regular_14_0x0049
                        0x0802e3e4    0x10  Data  Gb  dengxian_regular_14.o [1]
g_font_dengxian_regular_14_0x004a
                        0x0802e3f4    0x10  Data  Gb  dengxian_regular_14.o [1]
g_font_dengxian_regular_14_0x004b
                        0x0802e404    0x10  Data  Gb  dengxian_regular_14.o [1]
g_font_dengxian_regular_14_0x004c
                        0x0802e414    0x10  Data  Gb  dengxian_regular_14.o [1]
g_font_dengxian_regular_14_0x004d
                        0x0802b670    0x1c  Data  Gb  dengxian_regular_14.o [1]
g_font_dengxian_regular_14_0x004e
                        0x0802b68c    0x1c  Data  Gb  dengxian_regular_14.o [1]
g_font_dengxian_regular_14_0x004f
                        0x0802b6a8    0x1c  Data  Gb  dengxian_regular_14.o [1]
g_font_dengxian_regular_14_0x0050
                        0x0802e424    0x10  Data  Gb  dengxian_regular_14.o [1]
g_font_dengxian_regular_14_0x0051
                        0x0802b6c4    0x1c  Data  Gb  dengxian_regular_14.o [1]
g_font_dengxian_regular_14_0x0052
                        0x0802e434    0x10  Data  Gb  dengxian_regular_14.o [1]
g_font_dengxian_regular_14_0x0053
                        0x0802e444    0x10  Data  Gb  dengxian_regular_14.o [1]
g_font_dengxian_regular_14_0x0054
                        0x0802e454    0x10  Data  Gb  dengxian_regular_14.o [1]
g_font_dengxian_regular_14_0x0055
                        0x0802b6e0    0x1c  Data  Gb  dengxian_regular_14.o [1]
g_font_dengxian_regular_14_0x0056
                        0x0802e464    0x10  Data  Gb  dengxian_regular_14.o [1]
g_font_dengxian_regular_14_0x0057
                        0x0802b6fc    0x1c  Data  Gb  dengxian_regular_14.o [1]
g_font_dengxian_regular_14_0x0058
                        0x0802e474    0x10  Data  Gb  dengxian_regular_14.o [1]
g_font_dengxian_regular_14_0x0059
                        0x0802e484    0x10  Data  Gb  dengxian_regular_14.o [1]
g_font_dengxian_regular_14_0x005a
                        0x0802e494    0x10  Data  Gb  dengxian_regular_14.o [1]
g_font_dengxian_regular_14_0x005c
                        0x0802e4a4    0x10  Data  Gb  dengxian_regular_14.o [1]
g_font_dengxian_regular_14_0x005f
                        0x0802e4b4    0x10  Data  Gb  dengxian_regular_14.o [1]
g_font_dengxian_regular_14_0x0061
                        0x0802e4c4    0x10  Data  Gb  dengxian_regular_14.o [1]
g_font_dengxian_regular_14_0x0062
                        0x0802e4d4    0x10  Data  Gb  dengxian_regular_14.o [1]
g_font_dengxian_regular_14_0x0063
                        0x0802e4e4    0x10  Data  Gb  dengxian_regular_14.o [1]
g_font_dengxian_regular_14_0x0064
                        0x0802e4f4    0x10  Data  Gb  dengxian_regular_14.o [1]
g_font_dengxian_regular_14_0x0065
                        0x0802e504    0x10  Data  Gb  dengxian_regular_14.o [1]
g_font_dengxian_regular_14_0x0066
                        0x0802e514    0x10  Data  Gb  dengxian_regular_14.o [1]
g_font_dengxian_regular_14_0x0067
                        0x0802e524    0x10  Data  Gb  dengxian_regular_14.o [1]
g_font_dengxian_regular_14_0x0068
                        0x0802e534    0x10  Data  Gb  dengxian_regular_14.o [1]
g_font_dengxian_regular_14_0x0069
                        0x0802e544    0x10  Data  Gb  dengxian_regular_14.o [1]
g_font_dengxian_regular_14_0x006a
                        0x0802e554    0x10  Data  Gb  dengxian_regular_14.o [1]
g_font_dengxian_regular_14_0x006b
                        0x0802e564    0x10  Data  Gb  dengxian_regular_14.o [1]
g_font_dengxian_regular_14_0x006c
                        0x0802e574    0x10  Data  Gb  dengxian_regular_14.o [1]
g_font_dengxian_regular_14_0x006d
                        0x0802b718    0x1c  Data  Gb  dengxian_regular_14.o [1]
g_font_dengxian_regular_14_0x006e
                        0x0802e584    0x10  Data  Gb  dengxian_regular_14.o [1]
g_font_dengxian_regular_14_0x006f
                        0x0802e594    0x10  Data  Gb  dengxian_regular_14.o [1]
g_font_dengxian_regular_14_0x0070
                        0x0802e5a4    0x10  Data  Gb  dengxian_regular_14.o [1]
g_font_dengxian_regular_14_0x0071
                        0x0802e5b4    0x10  Data  Gb  dengxian_regular_14.o [1]
g_font_dengxian_regular_14_0x0072
                        0x0802e5c4    0x10  Data  Gb  dengxian_regular_14.o [1]
g_font_dengxian_regular_14_0x0073
                        0x0802e5d4    0x10  Data  Gb  dengxian_regular_14.o [1]
g_font_dengxian_regular_14_0x0074
                        0x0802e5e4    0x10  Data  Gb  dengxian_regular_14.o [1]
g_font_dengxian_regular_14_0x0075
                        0x0802e5f4    0x10  Data  Gb  dengxian_regular_14.o [1]
g_font_dengxian_regular_14_0x0076
                        0x0802e604    0x10  Data  Gb  dengxian_regular_14.o [1]
g_font_dengxian_regular_14_0x0077
                        0x0802b734    0x1c  Data  Gb  dengxian_regular_14.o [1]
g_font_dengxian_regular_14_0x0078
                        0x0802e614    0x10  Data  Gb  dengxian_regular_14.o [1]
g_font_dengxian_regular_14_0x0079
                        0x0802e624    0x10  Data  Gb  dengxian_regular_14.o [1]
g_font_dengxian_regular_14_0x007a
                        0x0802e634    0x10  Data  Gb  dengxian_regular_14.o [1]
g_font_dengxian_regular_14_0x2026
                        0x0802b750    0x1c  Data  Gb  dengxian_regular_14.o [1]
g_font_dengxian_regular_14_0x4e00
                        0x0802b76c    0x1c  Data  Gb  dengxian_regular_14.o [1]
g_font_dengxian_regular_14_0x4e0a
                        0x0802b788    0x1c  Data  Gb  dengxian_regular_14.o [1]
g_font_dengxian_regular_14_0x4e0b
                        0x0802b7a4    0x1c  Data  Gb  dengxian_regular_14.o [1]
g_font_dengxian_regular_14_0x4e0d
                        0x0802b7c0    0x1c  Data  Gb  dengxian_regular_14.o [1]
g_font_dengxian_regular_14_0x4e0e
                        0x0802b7dc    0x1c  Data  Gb  dengxian_regular_14.o [1]
g_font_dengxian_regular_14_0x4e22
                        0x0802b7f8    0x1c  Data  Gb  dengxian_regular_14.o [1]
g_font_dengxian_regular_14_0x4e2a
                        0x0802b814    0x1c  Data  Gb  dengxian_regular_14.o [1]
g_font_dengxian_regular_14_0x4e2d
                        0x0802b830    0x1c  Data  Gb  dengxian_regular_14.o [1]
g_font_dengxian_regular_14_0x4e3a
                        0x0802b84c    0x1c  Data  Gb  dengxian_regular_14.o [1]
g_font_dengxian_regular_14_0x4e86
                        0x0802b868    0x1c  Data  Gb  dengxian_regular_14.o [1]
g_font_dengxian_regular_14_0x4e8b
                        0x0802b884    0x1c  Data  Gb  dengxian_regular_14.o [1]
g_font_dengxian_regular_14_0x4eae
                        0x0802b8a0    0x1c  Data  Gb  dengxian_regular_14.o [1]
g_font_dengxian_regular_14_0x4eba
                        0x0802b8bc    0x1c  Data  Gb  dengxian_regular_14.o [1]
g_font_dengxian_regular_14_0x4ef6
                        0x0802b8d8    0x1c  Data  Gb  dengxian_regular_14.o [1]
g_font_dengxian_regular_14_0x4efb
                        0x0802b8f4    0x1c  Data  Gb  dengxian_regular_14.o [1]
g_font_dengxian_regular_14_0x4f4d
                        0x0802b910    0x1c  Data  Gb  dengxian_regular_14.o [1]
g_font_dengxian_regular_14_0x4f4e
                        0x0802b92c    0x1c  Data  Gb  dengxian_regular_14.o [1]
g_font_dengxian_regular_14_0x4f53
                        0x0802b948    0x1c  Data  Gb  dengxian_regular_14.o [1]
g_font_dengxian_regular_14_0x4f5c
                        0x0802b964    0x1c  Data  Gb  dengxian_regular_14.o [1]
g_font_dengxian_regular_14_0x4fdd
                        0x0802b980    0x1c  Data  Gb  dengxian_regular_14.o [1]
g_font_dengxian_regular_14_0x4fe1
                        0x0802b99c    0x1c  Data  Gb  dengxian_regular_14.o [1]
g_font_dengxian_regular_14_0x4fee
                        0x0802b9b8    0x1c  Data  Gb  dengxian_regular_14.o [1]
g_font_dengxian_regular_14_0x503c
                        0x0802b9d4    0x1c  Data  Gb  dengxian_regular_14.o [1]
g_font_dengxian_regular_14_0x504f
                        0x0802b9f0    0x1c  Data  Gb  dengxian_regular_14.o [1]
g_font_dengxian_regular_14_0x505c
                        0x0802ba0c    0x1c  Data  Gb  dengxian_regular_14.o [1]
g_font_dengxian_regular_14_0x50a8
                        0x0802ba28    0x1c  Data  Gb  dengxian_regular_14.o [1]
g_font_dengxian_regular_14_0x5148
                        0x0802ba44    0x1c  Data  Gb  dengxian_regular_14.o [1]
g_font_dengxian_regular_14_0x5165
                        0x0802ba60    0x1c  Data  Gb  dengxian_regular_14.o [1]
g_font_dengxian_regular_14_0x5173
                        0x0802ba7c    0x1c  Data  Gb  dengxian_regular_14.o [1]
g_font_dengxian_regular_14_0x5185
                        0x0802ba98    0x1c  Data  Gb  dengxian_regular_14.o [1]
g_font_dengxian_regular_14_0x51b2
                        0x0802bab4    0x1c  Data  Gb  dengxian_regular_14.o [1]
g_font_dengxian_regular_14_0x51c6
                        0x0802bad0    0x1c  Data  Gb  dengxian_regular_14.o [1]
g_font_dengxian_regular_14_0x51fa
                        0x0802baec    0x1c  Data  Gb  dengxian_regular_14.o [1]
g_font_dengxian_regular_14_0x5207
                        0x0802bb08    0x1c  Data  Gb  dengxian_regular_14.o [1]
g_font_dengxian_regular_14_0x5230
                        0x0802bb24    0x1c  Data  Gb  dengxian_regular_14.o [1]
g_font_dengxian_regular_14_0x524d
                        0x0802bb40    0x1c  Data  Gb  dengxian_regular_14.o [1]
g_font_dengxian_regular_14_0x529b
                        0x0802bb5c    0x1c  Data  Gb  dengxian_regular_14.o [1]
g_font_dengxian_regular_14_0x52a0
                        0x0802bb78    0x1c  Data  Gb  dengxian_regular_14.o [1]
g_font_dengxian_regular_14_0x52a1
                        0x0802bb94    0x1c  Data  Gb  dengxian_regular_14.o [1]
g_font_dengxian_regular_14_0x52a8
                        0x0802bbb0    0x1c  Data  Gb  dengxian_regular_14.o [1]
g_font_dengxian_regular_14_0x52ff
                        0x0802bbcc    0x1c  Data  Gb  dengxian_regular_14.o [1]
g_font_dengxian_regular_14_0x5373
                        0x0802bbe8    0x1c  Data  Gb  dengxian_regular_14.o [1]
g_font_dengxian_regular_14_0x5382
                        0x0802bc04    0x1c  Data  Gb  dengxian_regular_14.o [1]
g_font_dengxian_regular_14_0x5386
                        0x0802bc20    0x1c  Data  Gb  dengxian_regular_14.o [1]
g_font_dengxian_regular_14_0x538b
                        0x0802bc3c    0x1c  Data  Gb  dengxian_regular_14.o [1]
g_font_dengxian_regular_14_0x53d1
                        0x0802bc58    0x1c  Data  Gb  dengxian_regular_14.o [1]
g_font_dengxian_regular_14_0x53d6
                        0x0802bc74    0x1c  Data  Gb  dengxian_regular_14.o [1]
g_font_dengxian_regular_14_0x53f2
                        0x0802bc90    0x1c  Data  Gb  dengxian_regular_14.o [1]
g_font_dengxian_regular_14_0x53f3
                        0x0802bcac    0x1c  Data  Gb  dengxian_regular_14.o [1]
g_font_dengxian_regular_14_0x540e
                        0x0802bcc8    0x1c  Data  Gb  dengxian_regular_14.o [1]
g_font_dengxian_regular_14_0x5426
                        0x0802bce4    0x1c  Data  Gb  dengxian_regular_14.o [1]
g_font_dengxian_regular_14_0x542f
                        0x0802bd00    0x1c  Data  Gb  dengxian_regular_14.o [1]
g_font_dengxian_regular_14_0x5668
                        0x0802bd1c    0x1c  Data  Gb  dengxian_regular_14.o [1]
g_font_dengxian_regular_14_0x56de
                        0x0802bd38    0x1c  Data  Gb  dengxian_regular_14.o [1]
g_font_dengxian_regular_14_0x56fa
                        0x0802bd54    0x1c  Data  Gb  dengxian_regular_14.o [1]
g_font_dengxian_regular_14_0x5835
                        0x0802bd70    0x1c  Data  Gb  dengxian_regular_14.o [1]
g_font_dengxian_regular_14_0x585e
                        0x0802bd8c    0x1c  Data  Gb  dengxian_regular_14.o [1]
g_font_dengxian_regular_14_0x58f0
                        0x0802bda8    0x1c  Data  Gb  dengxian_regular_14.o [1]
g_font_dengxian_regular_14_0x5907
                        0x0802bdc4    0x1c  Data  Gb  dengxian_regular_14.o [1]
g_font_dengxian_regular_14_0x590d
                        0x0802bde0    0x1c  Data  Gb  dengxian_regular_14.o [1]
g_font_dengxian_regular_14_0x5927
                        0x0802bdfc    0x1c  Data  Gb  dengxian_regular_14.o [1]
g_font_dengxian_regular_14_0x5931
                        0x0802be18    0x1c  Data  Gb  dengxian_regular_14.o [1]
g_font_dengxian_regular_14_0x5934
                        0x0802be34    0x1c  Data  Gb  dengxian_regular_14.o [1]
g_font_dengxian_regular_14_0x597d
                        0x0802be50    0x1c  Data  Gb  dengxian_regular_14.o [1]
g_font_dengxian_regular_14_0x59cb
                        0x0802be6c    0x1c  Data  Gb  dengxian_regular_14.o [1]
g_font_dengxian_regular_14_0x5b58
                        0x0802be88    0x1c  Data  Gb  dengxian_regular_14.o [1]
g_font_dengxian_regular_14_0x5b89
                        0x0802bea4    0x1c  Data  Gb  dengxian_regular_14.o [1]
g_font_dengxian_regular_14_0x5b8c
                        0x0802bec0    0x1c  Data  Gb  dengxian_regular_14.o [1]
g_font_dengxian_regular_14_0x5b9a
                        0x0802bedc    0x1c  Data  Gb  dengxian_regular_14.o [1]
g_font_dengxian_regular_14_0x5b9e
                        0x0802bef8    0x1c  Data  Gb  dengxian_regular_14.o [1]
g_font_dengxian_regular_14_0x5bb9
                        0x0802bf14    0x1c  Data  Gb  dengxian_regular_14.o [1]
g_font_dengxian_regular_14_0x5bc6
                        0x0802bf30    0x1c  Data  Gb  dengxian_regular_14.o [1]
g_font_dengxian_regular_14_0x5c06
                        0x0802bf4c    0x1c  Data  Gb  dengxian_regular_14.o [1]
g_font_dengxian_regular_14_0x5c0f
                        0x0802bf68    0x1c  Data  Gb  dengxian_regular_14.o [1]
g_font_dengxian_regular_14_0x5c3d
                        0x0802bf84    0x1c  Data  Gb  dengxian_regular_14.o [1]
g_font_dengxian_regular_14_0x5cf0
                        0x0802bfa0    0x1c  Data  Gb  dengxian_regular_14.o [1]
g_font_dengxian_regular_14_0x5de5
                        0x0802bfbc    0x1c  Data  Gb  dengxian_regular_14.o [1]
g_font_dengxian_regular_14_0x5de6
                        0x0802bfd8    0x1c  Data  Gb  dengxian_regular_14.o [1]
g_font_dengxian_regular_14_0x5df2
                        0x0802bff4    0x1c  Data  Gb  dengxian_regular_14.o [1]
g_font_dengxian_regular_14_0x5e74
                        0x0802c010    0x1c  Data  Gb  dengxian_regular_14.o [1]
g_font_dengxian_regular_14_0x5e76
                        0x0802c02c    0x1c  Data  Gb  dengxian_regular_14.o [1]
g_font_dengxian_regular_14_0x5ea6
                        0x0802c048    0x1c  Data  Gb  dengxian_regular_14.o [1]
g_font_dengxian_regular_14_0x5f00
                        0x0802c064    0x1c  Data  Gb  dengxian_regular_14.o [1]
g_font_dengxian_regular_14_0x5f0f
                        0x0802c080    0x1c  Data  Gb  dengxian_regular_14.o [1]
g_font_dengxian_regular_14_0x5f3a
                        0x0802c09c    0x1c  Data  Gb  dengxian_regular_14.o [1]
g_font_dengxian_regular_14_0x5f53
                        0x0802c0b8    0x1c  Data  Gb  dengxian_regular_14.o [1]
g_font_dengxian_regular_14_0x5f55
                        0x0802c0d4    0x1c  Data  Gb  dengxian_regular_14.o [1]
g_font_dengxian_regular_14_0x603b
                        0x0802c0f0    0x1c  Data  Gb  dengxian_regular_14.o [1]
g_font_dengxian_regular_14_0x6062
                        0x0802c10c    0x1c  Data  Gb  dengxian_regular_14.o [1]
g_font_dengxian_regular_14_0x606f
                        0x0802c128    0x1c  Data  Gb  dengxian_regular_14.o [1]
g_font_dengxian_regular_14_0x6210
                        0x0802c144    0x1c  Data  Gb  dengxian_regular_14.o [1]
g_font_dengxian_regular_14_0x6237
                        0x0802c160    0x1c  Data  Gb  dengxian_regular_14.o [1]
g_font_dengxian_regular_14_0x624b
                        0x0802c17c    0x1c  Data  Gb  dengxian_regular_14.o [1]
g_font_dengxian_regular_14_0x62a5
                        0x0802c198    0x1c  Data  Gb  dengxian_regular_14.o [1]
g_font_dengxian_regular_14_0x62e9
                        0x0802c1b4    0x1c  Data  Gb  dengxian_regular_14.o [1]
g_font_dengxian_regular_14_0x6309
                        0x0802c1d0    0x1c  Data  Gb  dengxian_regular_14.o [1]
g_font_dengxian_regular_14_0x6362
                        0x0802c1ec    0x1c  Data  Gb  dengxian_regular_14.o [1]
g_font_dengxian_regular_14_0x636e
                        0x0802c208    0x1c  Data  Gb  dengxian_regular_14.o [1]
g_font_dengxian_regular_14_0x6392
                        0x0802c224    0x1c  Data  Gb  dengxian_regular_14.o [1]
g_font_dengxian_regular_14_0x63a5
                        0x0802c240    0x1c  Data  Gb  dengxian_regular_14.o [1]
g_font_dengxian_regular_14_0x64cd
                        0x0802c25c    0x1c  Data  Gb  dengxian_regular_14.o [1]
g_font_dengxian_regular_14_0x6539
                        0x0802c278    0x1c  Data  Gb  dengxian_regular_14.o [1]
g_font_dengxian_regular_14_0x6545
                        0x0802c294    0x1c  Data  Gb  dengxian_regular_14.o [1]
g_font_dengxian_regular_14_0x6570
                        0x0802c2b0    0x1c  Data  Gb  dengxian_regular_14.o [1]
g_font_dengxian_regular_14_0x65ad
                        0x0802c2cc    0x1c  Data  Gb  dengxian_regular_14.o [1]
g_font_dengxian_regular_14_0x65b0
                        0x0802c2e8    0x1c  Data  Gb  dengxian_regular_14.o [1]
g_font_dengxian_regular_14_0x65b9
                        0x0802c304    0x1c  Data  Gb  dengxian_regular_14.o [1]
g_font_dengxian_regular_14_0x65e5
                        0x0802c320    0x1c  Data  Gb  dengxian_regular_14.o [1]
g_font_dengxian_regular_14_0x65f6
                        0x0802c33c    0x1c  Data  Gb  dengxian_regular_14.o [1]
g_font_dengxian_regular_14_0x662f
                        0x0802c358    0x1c  Data  Gb  dengxian_regular_14.o [1]
g_font_dengxian_regular_14_0x666e
                        0x0802c374    0x1c  Data  Gb  dengxian_regular_14.o [1]
g_font_dengxian_regular_14_0x6682
                        0x0802c390    0x1c  Data  Gb  dengxian_regular_14.o [1]
g_font_dengxian_regular_14_0x66f4
                        0x0802c3ac    0x1c  Data  Gb  dengxian_regular_14.o [1]
g_font_dengxian_regular_14_0x6700
                        0x0802c3c8    0x1c  Data  Gb  dengxian_regular_14.o [1]
g_font_dengxian_regular_14_0x6708
                        0x0802c3e4    0x1c  Data  Gb  dengxian_regular_14.o [1]
g_font_dengxian_regular_14_0x671f
                        0x0802c400    0x1c  Data  Gb  dengxian_regular_14.o [1]
g_font_dengxian_regular_14_0x672a
                        0x0802c41c    0x1c  Data  Gb  dengxian_regular_14.o [1]
g_font_dengxian_regular_14_0x672c
                        0x0802c438    0x1c  Data  Gb  dengxian_regular_14.o [1]
g_font_dengxian_regular_14_0x673a
                        0x0802c454    0x1c  Data  Gb  dengxian_regular_14.o [1]
g_font_dengxian_regular_14_0x675f
                        0x0802c470    0x1c  Data  Gb  dengxian_regular_14.o [1]
g_font_dengxian_regular_14_0x6781
                        0x0802c48c    0x1c  Data  Gb  dengxian_regular_14.o [1]
g_font_dengxian_regular_14_0x6821
                        0x0802c4a8    0x1c  Data  Gb  dengxian_regular_14.o [1]
g_font_dengxian_regular_14_0x6a21
                        0x0802c4c4    0x1c  Data  Gb  dengxian_regular_14.o [1]
g_font_dengxian_regular_14_0x6b21
                        0x0802c4e0    0x1c  Data  Gb  dengxian_regular_14.o [1]
g_font_dengxian_regular_14_0x6b62
                        0x0802c4fc    0x1c  Data  Gb  dengxian_regular_14.o [1]
g_font_dengxian_regular_14_0x6b65
                        0x0802c518    0x1c  Data  Gb  dengxian_regular_14.o [1]
g_font_dengxian_regular_14_0x6bb5
                        0x0802c534    0x1c  Data  Gb  dengxian_regular_14.o [1]
g_font_dengxian_regular_14_0x6bcf
                        0x0802c550    0x1c  Data  Gb  dengxian_regular_14.o [1]
g_font_dengxian_regular_14_0x6c14
                        0x0802c56c    0x1c  Data  Gb  dengxian_regular_14.o [1]
g_font_dengxian_regular_14_0x6c60
                        0x0802c588    0x1c  Data  Gb  dengxian_regular_14.o [1]
g_font_dengxian_regular_14_0x6ce1
                        0x0802c5a4    0x1c  Data  Gb  dengxian_regular_14.o [1]
g_font_dengxian_regular_14_0x6ce8
                        0x0802c5c0    0x1c  Data  Gb  dengxian_regular_14.o [1]
g_font_dengxian_regular_14_0x6d88
                        0x0802c5dc    0x1c  Data  Gb  dengxian_regular_14.o [1]
g_font_dengxian_regular_14_0x6db2
                        0x0802c5f8    0x1c  Data  Gb  dengxian_regular_14.o [1]
g_font_dengxian_regular_14_0x6dfb
                        0x0802c614    0x1c  Data  Gb  dengxian_regular_14.o [1]
g_font_dengxian_regular_14_0x6e05
                        0x0802c630    0x1c  Data  Gb  dengxian_regular_14.o [1]
g_font_dengxian_regular_14_0x6e90
                        0x0802c64c    0x1c  Data  Gb  dengxian_regular_14.o [1]
g_font_dengxian_regular_14_0x7136
                        0x0802c668    0x1c  Data  Gb  dengxian_regular_14.o [1]
g_font_dengxian_regular_14_0x7248
                        0x0802c684    0x1c  Data  Gb  dengxian_regular_14.o [1]
g_font_dengxian_regular_14_0x751f
                        0x0802c6a0    0x1c  Data  Gb  dengxian_regular_14.o [1]
g_font_dengxian_regular_14_0x7528
                        0x0802c6bc    0x1c  Data  Gb  dengxian_regular_14.o [1]
g_font_dengxian_regular_14_0x7535
                        0x0802c6d8    0x1c  Data  Gb  dengxian_regular_14.o [1]
g_font_dengxian_regular_14_0x754c
                        0x0802c6f4    0x1c  Data  Gb  dengxian_regular_14.o [1]
g_font_dengxian_regular_14_0x7684
                        0x0802c710    0x1c  Data  Gb  dengxian_regular_14.o [1]
g_font_dengxian_regular_14_0x76d2
                        0x0802c72c    0x1c  Data  Gb  dengxian_regular_14.o [1]
g_font_dengxian_regular_14_0x76f4
                        0x0802c748    0x1c  Data  Gb  dengxian_regular_14.o [1]
g_font_dengxian_regular_14_0x76f8
                        0x0802c764    0x1c  Data  Gb  dengxian_regular_14.o [1]
g_font_dengxian_regular_14_0x7801
                        0x0802c780    0x1c  Data  Gb  dengxian_regular_14.o [1]
g_font_dengxian_regular_14_0x786e
                        0x0802c79c    0x1c  Data  Gb  dengxian_regular_14.o [1]
g_font_dengxian_regular_14_0x79fb
                        0x0802c7b8    0x1c  Data  Gb  dengxian_regular_14.o [1]
g_font_dengxian_regular_14_0x7ba1
                        0x0802c7d4    0x1c  Data  Gb  dengxian_regular_14.o [1]
g_font_dengxian_regular_14_0x7bad
                        0x0802c7f0    0x1c  Data  Gb  dengxian_regular_14.o [1]
g_font_dengxian_regular_14_0x7cbe
                        0x0802c80c    0x1c  Data  Gb  dengxian_regular_14.o [1]
g_font_dengxian_regular_14_0x7cfb
                        0x0802c828    0x1c  Data  Gb  dengxian_regular_14.o [1]
g_font_dengxian_regular_14_0x7ed3
                        0x0802c844    0x1c  Data  Gb  dengxian_regular_14.o [1]
g_font_dengxian_regular_14_0x7edf
                        0x0802c860    0x1c  Data  Gb  dengxian_regular_14.o [1]
g_font_dengxian_regular_14_0x7ee7
                        0x0802c87c    0x1c  Data  Gb  dengxian_regular_14.o [1]
g_font_dengxian_regular_14_0x7eed
                        0x0802c898    0x1c  Data  Gb  dengxian_regular_14.o [1]
g_font_dengxian_regular_14_0x7f16
                        0x0802c8b4    0x1c  Data  Gb  dengxian_regular_14.o [1]
g_font_dengxian_regular_14_0x7f6e
                        0x0802c8d0    0x1c  Data  Gb  dengxian_regular_14.o [1]
g_font_dengxian_regular_14_0x8017
                        0x0802c8ec    0x1c  Data  Gb  dengxian_regular_14.o [1]
g_font_dengxian_regular_14_0x81ea
                        0x0802c908    0x1c  Data  Gb  dengxian_regular_14.o [1]
g_font_dengxian_regular_14_0x836f
                        0x0802c924    0x1c  Data  Gb  dengxian_regular_14.o [1]
g_font_dengxian_regular_14_0x884c
                        0x0802c940    0x1c  Data  Gb  dengxian_regular_14.o [1]
g_font_dengxian_regular_14_0x888b
                        0x0802c95c    0x1c  Data  Gb  dengxian_regular_14.o [1]
g_font_dengxian_regular_14_0x88c5
                        0x0802c978    0x1c  Data  Gb  dengxian_regular_14.o [1]
g_font_dengxian_regular_14_0x89e3
                        0x0802c994    0x1c  Data  Gb  dengxian_regular_14.o [1]
g_font_dengxian_regular_14_0x8b66
                        0x0802c9b0    0x1c  Data  Gb  dengxian_regular_14.o [1]
g_font_dengxian_regular_14_0x8ba1
                        0x0802c9cc    0x1c  Data  Gb  dengxian_regular_14.o [1]
g_font_dengxian_regular_14_0x8ba4
                        0x0802c9e8    0x1c  Data  Gb  dengxian_regular_14.o [1]
g_font_dengxian_regular_14_0x8bb0
                        0x0802ca04    0x1c  Data  Gb  dengxian_regular_14.o [1]
g_font_dengxian_regular_14_0x8bbe
                        0x0802ca20    0x1c  Data  Gb  dengxian_regular_14.o [1]
g_font_dengxian_regular_14_0x8be2
                        0x0802ca3c    0x1c  Data  Gb  dengxian_regular_14.o [1]
g_font_dengxian_regular_14_0x8bef
                        0x0802ca58    0x1c  Data  Gb  dengxian_regular_14.o [1]
g_font_dengxian_regular_14_0x8bf7
                        0x0802ca74    0x1c  Data  Gb  dengxian_regular_14.o [1]
g_font_dengxian_regular_14_0x8f91
                        0x0802ca90    0x1c  Data  Gb  dengxian_regular_14.o [1]
g_font_dengxian_regular_14_0x8f93
                        0x0802caac    0x1c  Data  Gb  dengxian_regular_14.o [1]
g_font_dengxian_regular_14_0x8fc7
                        0x0802cac8    0x1c  Data  Gb  dengxian_regular_14.o [1]
g_font_dengxian_regular_14_0x8fd4
                        0x0802cae4    0x1c  Data  Gb  dengxian_regular_14.o [1]
g_font_dengxian_regular_14_0x8fdb
                        0x0802cb00    0x1c  Data  Gb  dengxian_regular_14.o [1]
g_font_dengxian_regular_14_0x8fde
                        0x0802cb1c    0x1c  Data  Gb  dengxian_regular_14.o [1]
g_font_dengxian_regular_14_0x9002
                        0x0802cb38    0x1c  Data  Gb  dengxian_regular_14.o [1]
g_font_dengxian_regular_14_0x9009
                        0x0802cb54    0x1c  Data  Gb  dengxian_regular_14.o [1]
g_font_dengxian_regular_14_0x901a
                        0x0802cb70    0x1c  Data  Gb  dengxian_regular_14.o [1]
g_font_dengxian_regular_14_0x901f
                        0x0802cb8c    0x1c  Data  Gb  dengxian_regular_14.o [1]
g_font_dengxian_regular_14_0x914d
                        0x0802cba8    0x1c  Data  Gb  dengxian_regular_14.o [1]
g_font_dengxian_regular_14_0x91cd
                        0x0802cbc4    0x1c  Data  Gb  dengxian_regular_14.o [1]
g_font_dengxian_regular_14_0x91cf
                        0x0802cbe0    0x1c  Data  Gb  dengxian_regular_14.o [1]
g_font_dengxian_regular_14_0x9501
                        0x0802cbfc    0x1c  Data  Gb  dengxian_regular_14.o [1]
g_font_dengxian_regular_14_0x9519
                        0x0802cc18    0x1c  Data  Gb  dengxian_regular_14.o [1]
g_font_dengxian_regular_14_0x952e
                        0x0802cc34    0x1c  Data  Gb  dengxian_regular_14.o [1]
g_font_dengxian_regular_14_0x957f
                        0x0802cc50    0x1c  Data  Gb  dengxian_regular_14.o [1]
g_font_dengxian_regular_14_0x95ed
                        0x0802cc6c    0x1c  Data  Gb  dengxian_regular_14.o [1]
g_font_dengxian_regular_14_0x95ee
                        0x0802cc88    0x1c  Data  Gb  dengxian_regular_14.o [1]
g_font_dengxian_regular_14_0x95f4
                        0x0802cca4    0x1c  Data  Gb  dengxian_regular_14.o [1]
g_font_dengxian_regular_14_0x9645
                        0x0802ccc0    0x1c  Data  Gb  dengxian_regular_14.o [1]
g_font_dengxian_regular_14_0x9650
                        0x0802ccdc    0x1c  Data  Gb  dengxian_regular_14.o [1]
g_font_dengxian_regular_14_0x9664
                        0x0802ccf8    0x1c  Data  Gb  dengxian_regular_14.o [1]
g_font_dengxian_regular_14_0x969c
                        0x0802cd14    0x1c  Data  Gb  dengxian_regular_14.o [1]
g_font_dengxian_regular_14_0x9762
                        0x0802cd30    0x1c  Data  Gb  dengxian_regular_14.o [1]
g_font_dengxian_regular_14_0x97f3
                        0x0802cd4c    0x1c  Data  Gb  dengxian_regular_14.o [1]
g_font_dengxian_regular_14_0x9884
                        0x0802cd68    0x1c  Data  Gb  dengxian_regular_14.o [1]
g_font_dengxian_regular_14_0x9996
                        0x0802cd84    0x1c  Data  Gb  dengxian_regular_14.o [1]
g_font_dengxian_regular_14_0xff01
                        0x0802cda0    0x1c  Data  Gb  dengxian_regular_14.o [1]
g_font_dengxian_regular_14_0xff0c
                        0x0802cdbc    0x1c  Data  Gb  dengxian_regular_14.o [1]
g_font_dengxian_regular_14_0xff1f
                        0x0802cdd8    0x1c  Data  Gb  dengxian_regular_14.o [1]
g_font_dengxian_regular_14_char_info
                        0x080226c8   0x8d8  Data  Gb  dengxian_regular_14.o [1]
g_font_heiti_regular_60
                        0x0802edb8     0xc  Data  Gb  heiti_regular_60.o [1]
g_font_heiti_regular_60_0x002b
                        0x080262c4    0xf0  Data  Gb  heiti_regular_60.o [1]
g_font_heiti_regular_60_0x002d
                        0x080263b4    0xf0  Data  Gb  heiti_regular_60.o [1]
g_font_heiti_regular_60_0x002e
                        0x080264a4    0xf0  Data  Gb  heiti_regular_60.o [1]
g_font_heiti_regular_60_0x0030
                        0x08026594    0xf0  Data  Gb  heiti_regular_60.o [1]
g_font_heiti_regular_60_0x0031
                        0x08026684    0xf0  Data  Gb  heiti_regular_60.o [1]
g_font_heiti_regular_60_0x0032
                        0x08026774    0xf0  Data  Gb  heiti_regular_60.o [1]
g_font_heiti_regular_60_0x0033
                        0x08026864    0xf0  Data  Gb  heiti_regular_60.o [1]
g_font_heiti_regular_60_0x0034
                        0x08026954    0xf0  Data  Gb  heiti_regular_60.o [1]
g_font_heiti_regular_60_0x0035
                        0x08026a44    0xf0  Data  Gb  heiti_regular_60.o [1]
g_font_heiti_regular_60_0x0036
                        0x08026b34    0xf0  Data  Gb  heiti_regular_60.o [1]
g_font_heiti_regular_60_0x0037
                        0x08026c24    0xf0  Data  Gb  heiti_regular_60.o [1]
g_font_heiti_regular_60_0x0038
                        0x08026d14    0xf0  Data  Gb  heiti_regular_60.o [1]
g_font_heiti_regular_60_0x0039
                        0x08026e04    0xf0  Data  Gb  heiti_regular_60.o [1]
g_font_heiti_regular_60_0x003a
                        0x08026ef4    0xf0  Data  Gb  heiti_regular_60.o [1]
g_font_heiti_regular_60_char_info
                        0x080286f0    0x70  Data  Gb  heiti_regular_60.o [1]
g_font_heiti_regular_88
                        0x0802edc4     0xc  Data  Gb  heiti_regular_88.o [1]
g_font_heiti_regular_88_0x002b
                        0x08023bf0   0x210  Data  Gb  heiti_regular_88.o [1]
g_font_heiti_regular_88_0x002d
                        0x08023e00   0x210  Data  Gb  heiti_regular_88.o [1]
g_font_heiti_regular_88_0x002e
                        0x08024010   0x210  Data  Gb  heiti_regular_88.o [1]
g_font_heiti_regular_88_0x0030
                        0x08024220   0x210  Data  Gb  heiti_regular_88.o [1]
g_font_heiti_regular_88_0x0031
                        0x08024430   0x210  Data  Gb  heiti_regular_88.o [1]
g_font_heiti_regular_88_0x0032
                        0x08024640   0x210  Data  Gb  heiti_regular_88.o [1]
g_font_heiti_regular_88_0x0033
                        0x08024850   0x210  Data  Gb  heiti_regular_88.o [1]
g_font_heiti_regular_88_0x0034
                        0x08024a60   0x210  Data  Gb  heiti_regular_88.o [1]
g_font_heiti_regular_88_0x0035
                        0x08024c70   0x210  Data  Gb  heiti_regular_88.o [1]
g_font_heiti_regular_88_0x0036
                        0x08024e80   0x210  Data  Gb  heiti_regular_88.o [1]
g_font_heiti_regular_88_0x0037
                        0x08025090   0x210  Data  Gb  heiti_regular_88.o [1]
g_font_heiti_regular_88_0x0038
                        0x080252a0   0x210  Data  Gb  heiti_regular_88.o [1]
g_font_heiti_regular_88_0x0039
                        0x080254b0   0x210  Data  Gb  heiti_regular_88.o [1]
g_font_heiti_regular_88_char_info
                        0x08028830    0x68  Data  Gb  heiti_regular_88.o [1]
g_high_alarm_list       0x2000000c     0x4  Data  Lc  alarm.o [1]
g_high_alarm_list_inter
                        0x200078a4    0x10  Data  Lc  alarm.o [1]
g_high_alarm_list_nodes
                        0x20006de0    0x60  Data  Lc  alarm.o [1]
g_highest_alarm_list    0x20000010     0x4  Data  Lc  alarm.o [1]
g_highest_alarm_list_inter
                        0x200078b4    0x10  Data  Lc  alarm.o [1]
g_highest_alarm_list_nodes
                        0x20006764    0xa8  Data  Lc  alarm.o [1]
g_history_log_show_text
                        0x200069b8    0x80  Data  Lc  app_history_log.o [1]
g_history_log_view_index
                        0x20007a34     0x4  Data  Lc  app_history_log.o [1]
g_history_log_widgets   0x0802b088    0x20  Data  Lc  app_history_log.o [1]
g_home_widgets          0x08027880    0xc0  Data  Lc  app_home.o [1]
g_image_data            0x080256c0   0x204  Data  Lc  image_data.o [1]
g_img_AC                0x0802d0fc    0x18  Data  Gb  AC.o [1]
g_img_battery_AC        0x08029dc8    0x30  Data  Gb  battery_AC.o [1]
g_img_battery_empty     0x08029df8    0x30  Data  Gb  battery_empty.o [1]
g_img_battery_full      0x08029e28    0x30  Data  Gb  battery_full.o [1]
g_img_battery_no        0x08029e58    0x30  Data  Gb  battery_no.o [1]
g_img_battery_one       0x08029e88    0x30  Data  Gb  battery_one.o [1]
g_img_battery_three     0x08029eb8    0x30  Data  Gb  battery_three.o [1]
g_img_battery_two       0x08029ee8    0x30  Data  Gb  battery_two.o [1]
g_img_error             0x08027e44    0xb4  Data  Gb  error.o [1]
g_img_exhaust           0x080279f8    0xb8  Data  Gb  exhaust.o [1]
g_img_exhaust_pause     0x0802f124     0x8  Data  Gb  exhaust_pause.o [1]
g_img_exhaust_run       0x0802f12c     0x8  Data  Gb  exhaust_run.o [1]
g_img_flush_max_dose_selected
                        0x080270b0    0xc8  Data  Gb  flush_max_dose_selected.o [1]
g_img_flush_max_dose_unselected
                        0x08027178    0xc8  Data  Gb  flush_max_dose_unselected.o [1]
g_img_history_log       0x08027ab0    0xb8  Data  Gb  history_log.o [1]
g_img_info_select       0x08027240    0xc8  Data  Gb  info_select.o [1]
g_img_info_unselect     0x08027308    0xc8  Data  Gb  info_unselect.o [1]
g_img_infusion_pause    0x0802b1a8    0x20  Data  Gb  infusion_pause.o [1]
g_img_infusion_run      0x0802b1c8    0x20  Data  Gb  infusion_run.o [1]
g_img_infusion_stop     0x0802b1e8    0x20  Data  Gb  infusion_stop.o [1]
g_img_left_arrow        0x0802f154     0x8  Data  Gb  left_arrow.o [1]
g_img_lock              0x0802eddc     0xc  Data  Gb  lock.o [1]
g_img_logo              0x08026008   0x1bc  Data  Gb  logo.o [1]
g_img_mode_selected     0x080273d0    0xc8  Data  Gb  mode_selected.o [1]
g_img_mode_unselected   0x08027498    0xc8  Data  Gb  mode_unselected.o [1]
g_img_mute              0x0802b208    0x20  Data  Gb  mute.o [1]
g_img_mute_small        0x0802daa4    0x14  Data  Gb  mute_small.o [1]
g_img_new_task          0x08027b68    0xb8  Data  Gb  new_task.o [1]
g_img_peak_set_select   0x08027560    0xc8  Data  Gb  peak_set_select.o [1]
g_img_peak_set_unselect
                        0x08027628    0xc8  Data  Gb  peak_set_unselect.o [1]
g_img_right_arrow       0x0802f18c     0x8  Data  Gb  right_arrow.o [1]
g_img_select_1          0x080258c4   0x1e0  Data  Gb  select_1.o [1]
g_img_select_2          0x08025aa4   0x1e0  Data  Gb  select_2.o [1]
g_img_selected_pointer  0x0802f1e4     0x8  Data  Gb  selected_pointer.o [1]
g_img_set_arrow         0x0802e6a4    0x10  Data  Gb  set_arrow.o [1]
g_img_sound_pause       0x0802b368    0x20  Data  Gb  sound_pause.o [1]
g_img_stop_infusion     0x08027c20    0xb8  Data  Gb  stop_infusion.o [1]
g_img_system_setting    0x08027cd8    0xb8  Data  Gb  system_setting.o [1]
g_img_time_select       0x080276f0    0xc8  Data  Gb  time_select.o [1]
g_img_time_unselect     0x080277b8    0xc8  Data  Gb  time_unselect.o [1]
g_img_unselected_pointer
                        0x0800513e     0x1  Data  Gb  unselected_pointer.o [1]
g_img_warning           0x08027ef8    0xb4  Data  Gb  warning.o [1]
g_img_warning_common    0x08027fac    0xb4  Data  Gb  warning_common.o [1]
g_infuse_start_time     0x20007a1c     0x4  Data  Gb  app_delivery.o [1]
g_infused_encoder_decpart
                        0x20007a30     0x4  Data  Lc  app_delivery.o [1]
g_infused_encoder_intpart
                        0x20007a2c     0x4  Data  Lc  app_delivery.o [1]
g_infusion_data_info    0x20006934    0x84  Data  Gb  app_delivery.o [1]
g_infusion_deviation_encoder
                        0x20007a28     0x4  Data  Lc  app_delivery.o [1]
g_infusion_duration     0x20000024     0x4  Data  Lc  app_scr_set_infusion_duration.o [1]
g_infusion_monitor_battery_empty_voltage_for_msg
                        0x20007a88     0x4  Data  Gb  app_infusion_monitor.o [1]
g_infusion_monitor_battery_low_voltage_for_msg
                        0x20007a84     0x4  Data  Gb  app_infusion_monitor.o [1]
g_infusion_monitor_bubble_check_count_for_filter
                        0x20007a60     0x4  Data  Gb  app_infusion_monitor.o [1]
g_infusion_monitor_bubble_check_result_for_filter
                        0x20007984     0xc  Data  Gb  app_infusion_monitor.o [1]
g_infusion_monitor_bubble_is_have_valid_check_after_motor_run
                        0x20007be9     0x1  Data  Gb  app_infusion_monitor.o [1]
g_infusion_monitor_check_battery_empty_index
                        0x20007a7c     0x4  Data  Gb  app_infusion_monitor.o [1]
g_infusion_monitor_check_battery_empty_sample
                        0x2000764c    0x28  Data  Gb  app_infusion_monitor.o [1]
g_infusion_monitor_check_battery_empty_voltage
                        0x20007a80     0x4  Data  Gb  app_infusion_monitor.o [1]
g_infusion_monitor_check_battery_low_index
                        0x20007a74     0x4  Data  Gb  app_infusion_monitor.o [1]
g_infusion_monitor_check_battery_low_sample
                        0x20007624    0x28  Data  Gb  app_infusion_monitor.o [1]
g_infusion_monitor_check_battery_low_voltage
                        0x20007a78     0x4  Data  Gb  app_infusion_monitor.o [1]
g_infusion_monitor_flag
                        0x20007beb     0x1  Data  Gb  app_infusion_monitor.o [1]
g_infusion_monitor_last_bubble_check_time
                        0x20007a5c     0x4  Data  Gb  app_infusion_monitor.o [1]
g_infusion_monitor_last_encoder_count_when_bubble_check
                        0x20007a58     0x4  Data  Gb  app_infusion_monitor.o [1]
g_infusion_monitor_motor_encoder_count_after_start
                        0x20007a6c     0x4  Data  Gb  app_infusion_monitor.o [1]
g_infusion_motor_a_b_direction_error_total
                        0x20007aec     0x4  Data  Gb  infusion_motor.o [1]
g_infusion_motor_check_last_encoder_time
                        0x20007af8     0x4  Data  Gb  infusion_motor.o [1]
g_infusion_motor_current_large_count
                        0x20007b10     0x4  Data  Gb  infusion_motor.o [1]
g_infusion_motor_direction_error_count
                        0x20007ae8     0x4  Data  Gb  infusion_motor.o [1]
g_infusion_motor_encoder
                        0x20007ad0     0x4  Data  Gb  infusion_motor.o [1]
g_infusion_motor_error_counter_direction
                        0x20007b08     0x4  Data  Gb  infusion_motor.o [1]
g_infusion_motor_error_counter_encoder
                        0x20007b00     0x4  Data  Gb  infusion_motor.o [1]
g_infusion_motor_error_counter_optical_encoder
                        0x20007b04     0x4  Data  Gb  infusion_motor.o [1]
g_infusion_motor_expect_encoder
                        0x20007adc     0x4  Data  Gb  infusion_motor.o [1]
g_infusion_motor_expect_optical_coupler_encoder
                        0x20007ad8     0x4  Data  Gb  infusion_motor.o [1]
g_infusion_motor_is_IN1_pin_as_PWM
                        0x20007abc     0x4  Data  Gb  drv_infusion_motor.o [1]
g_infusion_motor_is_cannot_run
                        0x20007b14     0x4  Data  Gb  infusion_motor.o [1]
g_infusion_motor_is_event_set
                        0x20007bf8     0x1  Data  Gb  infusion_motor.o [1]
g_infusion_motor_last_encoder
                        0x20007af0     0x4  Data  Gb  infusion_motor.o [1]
g_infusion_motor_last_optical_coupler_encoder
                        0x20007af4     0x4  Data  Gb  infusion_motor.o [1]
g_infusion_motor_monitor_start_time
                        0x20007afc     0x4  Data  Gb  infusion_motor.o [1]
g_infusion_motor_optical_coupler_encoder
                        0x20007ad4     0x4  Data  Gb  infusion_motor.o [1]
g_infusion_motor_pwm_step_num
                        0x20000070     0x4  Data  Gb  infusion_motor.o [1]
g_infusion_motor_run_start_pwm_level
                        0x2000006c     0x4  Data  Gb  infusion_motor.o [1]
g_infusion_motor_running_dir
                        0x20007bf7     0x1  Data  Gb  infusion_motor.o [1]
g_infusion_motor_soft_run_pwm_level
                        0x20007b0c     0x4  Data  Gb  infusion_motor.o [1]
g_infusion_motor_state  0x20007bf6     0x1  Data  Gb  infusion_motor.o [1]
g_infusion_motor_stop_cause
                        0x20007ae0     0x4  Data  Gb  infusion_motor.o [1]
g_infusion_motor_stop_handler
                        0x20007ae4     0x4  Data  Gb  infusion_motor.o [1]
g_infusion_speed        0x20000028     0x4  Data  Lc  app_scr_set_infusion_speed.o [1]
g_infusion_start_time   0x20007a68     0x4  Data  Gb  app_infusion_monitor.o [1]
g_interrupt_is_confirm_key_pressed
                        0x20007bf1     0x1  Data  Gb  drv_interrupt.o [1]
g_is_allow_bubble_alarm
                        0x200000ac     0x1  Data  Gb  param.o [1]
g_is_allow_sleep        0x200000a6     0x1  Data  Lc  app_common.o [1]
g_is_auto_power_off     0x20007be0     0x1  Data  Lc  app_common.o [1]
g_is_enter_from_speed_mode
                        0x200000a7     0x1  Data  Gb  app_scr_set_infusion_speed.o [1]
g_is_infusing_point     0x20007be5     0x1  Data  Gb  app_delivery.o [1]
g_is_keypad_locked      0x20007bde     0x1  Data  Lc  app_common.o [1]
g_is_mute_mode          0x20007bda     0x1  Data  Gb  alarm_play.o [1]
g_is_pill_box_installed
                        0x20007c01     0x1  Data  Gb  param.o [1]
g_is_pressure_adc_ready_when_installed
                        0x20007c00     0x1  Data  Gb  param.o [1]
g_is_sleep_allowed      0x200000a8     0x1  Data  Gb  app_system_monitor.o [1]
g_is_testing_lifetime   0x20007be1     0x1  Data  Gb  app_common.o [1]
g_is_watchdog_enable    0x20007bdf     0x1  Data  Lc  app_common.o [1]
g_isd2360_spi           0x20007904    0x10  Data  Lc  drv_isd2360.o [1]
g_key_current_key_is_handled
                        0x20007bf9     0x1  Data  Lc  key.o [1]
g_key_current_key_is_need_handle
                        0x20007bfa     0x1  Data  Lc  key.o [1]
g_key_gpios             0x0802a788    0x28  Data  Lc  drv_key.o [1]
g_key_infos             0x200068a8    0x8c  Data  Lc  key.o [1]
g_key_last_read_time    0x20007b18     0x4  Data  Lc  key.o [1]
g_key_monitor_funs      0x200079dc     0x8  Data  Lc  key.o [1]
g_lang_font_data        0x0802f144     0x8  Data  Lc  font_data.o [1]
g_lang_string_data      0x0802f2ac     0x8  Data  Lc  string_data.o [1]
g_last_clear_watchdog_time_point
                        0x20007b60     0x4  Data  Gb  ssz_config.o [1]
g_last_delivery_time    0x200078d4    0x10  Data  Gb  app_delivery.o [1]
g_last_error_code       0x20007b5c     0x4  Data  Lc  ssz_common.o [1]
g_last_expect_infusion_hour_char_len
                        0x20007a48     0x4  Data  Lc  app_home.o [1]
g_last_expect_infusion_time
                        0x20007a38     0x4  Data  Lc  app_home.o [1]
g_last_infused_dose     0x20007a3c     0x4  Data  Lc  app_home.o [1]
g_last_infusion_bag     0x20007be7     0x1  Data  Lc  app_home.o [1]
g_last_infusion_speed   0x20007a44     0x4  Data  Lc  app_home.o [1]
g_last_infusion_state   0x20007be6     0x1  Data  Lc  app_home.o [1]
g_last_total_dose       0x20007a40     0x4  Data  Lc  app_home.o [1]
g_layout_list_with_one_column
                        0x0802ce9c    0x1c  Data  Lc  scr_layout.o [1]
g_layout_progress_bar_and_icon
                        0x0802ceb8    0x1c  Data  Lc  scr_layout.o [1]
g_layout_standard       0x0802ad74    0x24  Data  Lc  scr_layout.o [1]
g_led_last_show_id      0x20007bfc     0x1  Data  Lc  led.o [1]
g_led_show_id           0x20007bfb     0x1  Data  Lc  led.o [1]
g_led_turn_on_time_ms   0x20007b1c     0x4  Data  Lc  led.o [1]
g_locale_country_region
                        0x20007c08     0x1  Data  Lc  ssz_locale.o [1]
g_locale_lang           0x20007c07     0x1  Data  Lc  ssz_locale.o [1]
g_log_is_inited         0x20007c03     0x1  Data  Lc  record_log.o [1]
g_logs                  0x20006c28    0x70  Data  Lc  record_log.o [1]
g_logs_max_size         0x0802f164     0x8  Data  Lc  record_log.o [1]
g_low_alarm_list        0x20000008     0x4  Data  Lc  alarm.o [1]
g_low_alarm_list_inter  0x20007894    0x10  Data  Lc  alarm.o [1]
g_low_alarm_list_nodes  0x20006ff8    0x50  Data  Lc  alarm.o [1]
g_lowest_alarm_list     0x20000004     0x4  Data  Lc  alarm.o [1]
g_lowest_alarm_list_inter
                        0x20007884    0x10  Data  Lc  alarm.o [1]
g_lowest_alarm_list_nodes
                        0x200075d4    0x28  Data  Lc  alarm.o [1]
g_main_menu_items       0x0802ed04     0xc  Data  Lc  app_main_menu.o [1]
g_main_menu_widgets     0x08028ac4    0x58  Data  Lc  app_main_menu.o [1]
g_manual_clear_air_bag_meg
                        0x20007bed     0x1  Data  Lc  app_scr_manual_clear_air.o [1]
g_max_clean_tube_dose   0x20007b50     0x4  Data  Lc  scr_set_clean_tube_dose.o [1]
g_mcu_monitor_reset_count
                        0x20007a98     0x4  Data  Lc  app_mcu_monitor.o [1]
g_mcu_monitor_watchdog_expired_time
                        0x20000018     0x4  Data  Lc  app_mcu_monitor.o [1]
g_min_duration          0x20007aa0     0x4  Data  Lc  app_scr_set_infusion_duration.o [1]
g_module_output_info    0x20000038    0x28  Data  Lc  common.o [1]
g_monitor_bubble_deque  0x200078e4    0x10  Data  Gb  app_infusion_monitor.o [1]
g_monitor_bubbles_check_points
                        0x200044b0   0x4b0  Data  Gb  app_infusion_monitor.o [1]
g_monitor_install_not_right_count
                        0x20007a64     0x4  Data  Gb  app_infusion_monitor.o [1]
g_monitor_is_infusion_near_empty_notified
                        0x20007bea     0x1  Data  Gb  app_infusion_monitor.o [1]
g_monitor_is_motor_run_continue
                        0x20007be8     0x1  Data  Gb  app_infusion_monitor.o [1]
g_monitor_last_battery_level
                        0x20000030     0x4  Data  Lc  app_system_monitor.o [1]
g_monitor_last_battery_level_hold_time
                        0x20007aa8     0x4  Data  Lc  app_system_monitor.o [1]
g_monitor_last_pill_box_installed_state_hold_count
                        0x20007aac     0x4  Data  Lc  app_system_monitor.o [1]
g_monitor_no_operate_time_ms
                        0x20000034     0x4  Data  Gb  app_system_monitor.o [1]
g_monitor_occlusion_count
                        0x20007a4c     0x4  Data  Gb  app_infusion_monitor.o [1]
g_monitor_occlusion_max_count
                        0x20007a54     0x4  Data  Gb  app_infusion_monitor.o [1]
g_monitor_pressure_adc_when_installed
                        0x20007a50     0x4  Data  Gb  app_infusion_monitor.o [1]
g_monitor_pressure_too_small_count
                        0x20007a8c     0x4  Data  Gb  app_infusion_monitor.o [1]
g_month_days            0x0802ee30     0xc  Data  Lc  ssz_time_utility.o [1]
g_motor_monitor_start_time
                        0x20007a70     0x4  Data  Gb  app_infusion_monitor.o [1]
g_msg_handler_arr       0x20006d74    0x6c  Data  Lc  msg.o [1]
g_msg_nodes             0x200063f0    0xf0  Data  Lc  msg.o [1]
g_msg_queue             0x20000074     0x4  Data  Lc  msg.o [1]
g_msg_queue_inter       0x20007944    0x10  Data  Lc  msg.o [1]
g_new_pressure_calibration_adc_diffs
                        0x200076c4    0x28  Data  Lc  scr_new_pressure_calibration.o [1]
g_new_pressure_calibration_adcs
                        0x2000769c    0x28  Data  Lc  scr_new_pressure_calibration.o [1]
g_new_pressure_calibration_current_step
                        0x20007b3c     0x4  Data  Lc  scr_new_pressure_calibration.o [1]
g_new_pressure_calibration_is_running
                        0x20007c04     0x1  Data  Lc  scr_new_pressure_calibration.o [1]
g_new_pressure_calibration_last_adc_after_motor_stop
                        0x20007b40     0x4  Data  Lc  scr_new_pressure_calibration.o [1]
g_new_pressure_calibration_last_adc_after_motor_stop_diff
                        0x20007b44     0x4  Data  Lc  scr_new_pressure_calibration.o [1]
g_new_pressure_calibration_last_show_voltage
                        0x20007b38     0x4  Data  Lc  scr_new_pressure_calibration.o [1]
g_new_pressure_calibration_pressures
                        0x200076ec    0x28  Data  Lc  scr_new_pressure_calibration.o [1]
g_new_pressure_calibration_widgets
                        0x08028060    0xac  Data  Lc  scr_new_pressure_calibration.o [1]
g_next_delivery_bag     0x20007be2     0x1  Data  Gb  app_delivery.o [1]
g_next_delivery_dose    0x20007a14     0x4  Data  Gb  app_delivery.o [1]
g_next_delivery_speed   0x20007a18     0x4  Data  Gb  app_delivery.o [1]
g_next_delivery_time    0x200078c4    0x10  Data  Gb  app_delivery.o [1]
g_oled_is_first_init    0x200000a9     0x1  Data  Lc  drv_oled.o [1]
g_oled_is_init          0x20007bf5     0x1  Data  Lc  drv_oled.o [1]
g_oled_spi              0x20007914    0x10  Data  Lc  drv_oled.o [1]
g_operation_log_show_text
                        0x20006a38    0x80  Data  Lc  app_operation_log.o [1]
g_operation_log_view_index
                        0x20007a9c     0x4  Data  Lc  app_operation_log.o [1]
g_operation_log_widgets
                        0x0802b108    0x20  Data  Lc  app_operation_log.o [1]
g_password_popup_widgets
                        0x08028ff4    0x48  Data  Lc  scr_password_popup.o [1]
g_peak_mode_infusion_speed
                        0x20007aa4     0x4  Data  Lc  app_scr_set_peek_mode_speed.o [1]
g_play_beep_counter     0x20007a04     0x4  Data  Lc  alarm_play.o [1]
g_play_beep_expect_times
                        0x20007a08     0x4  Data  Lc  alarm_play.o [1]
g_popup_widgets         0x08028f64    0x48  Data  Lc  app_popup.o [1]
g_precision_calibration_is_running
                        0x20007c05     0x1  Data  Lc  scr_precision_calibration.o [1]
g_precision_calibration_run_encoder
                        0x20007b4c     0x4  Data  Lc  scr_precision_calibration.o [1]
g_precision_calibration_widgets
                        0x0802867c    0x74  Data  Lc  scr_precision_calibration.o [1]
g_precision_factor_widgets
                        0x0802dae0    0x14  Data  Lc  scr_precision_factor.o [1]
g_pressure_adc_when_installed
                        0x20007b28     0x4  Data  Gb  param.o [1]
g_pressure_bubble_sensor_is_pwr_enable
                        0x20007c02     0x1  Data  Lc  pressure_bubble_sensor.o [1]
g_pressure_threshold    0x20007b30     0x4  Data  Gb  param.o [1]
g_pressure_threshold_widgets
                        0x0802daf4    0x14  Data  Lc  scr_pressure_threshold.o [1]
g_receive_slaver_version_flag
                        0x20007a94     0x4  Data  Lc  app_mcu_comm.o [1]
g_remind_alarm_list     0x20000000     0x4  Data  Lc  alarm.o [1]
g_remind_alarm_list_inter
                        0x20007874    0x10  Data  Lc  alarm.o [1]
g_remind_alarm_list_nodes
                        0x20007738    0x20  Data  Lc  alarm.o [1]
g_rtc_check_last_time_ms
                        0x20007b20     0x4  Data  Lc  mid_rtc.o [1]
g_rtc_i2c               0x200077d0    0x1c  Data  Lc  drv_rtc.o [1]
g_rtc_recheck_count     0x20007b24     0x4  Data  Lc  mid_rtc.o [1]
g_rtc_time              0x200079ec     0x8  Data  Lc  mid_rtc.o [1]
g_rtc_time_check        0x200079f4     0x8  Data  Lc  mid_rtc.o [1]
g_salloc_info_arr       0x20007048    0x50  Data  Lc  simple_alloc.o [1]
g_salloc_memory         0x0802a038    0x30  Data  Lc  simple_alloc_config.o [1]
g_scr_alarm_show_id     0x20007bec     0x1  Data  Lc  app_scr_alarm.o [1]
g_scr_alarm_widgets     0x0802895c    0x60  Data  Lc  app_scr_alarm.o [1]
g_scr_change_oled_brightness_widgets
                        0x0802da18    0x14  Data  Lc  app_scr_change_oled_brightness.o [1]
g_scr_change_password_widgets
                        0x08028fac    0x48  Data  Lc  app_scr_change_password.o [1]
g_scr_manual_clear_air_widgets
                        0x08028b1c    0x58  Data  Lc  app_scr_manual_clear_air.o [1]
g_scr_set_date_widgets  0x08028cbc    0x50  Data  Lc  app_scr_set_date.o [1]
g_scr_set_infusion_duration_widgets
                        0x080282e8    0x88  Data  Lc  app_scr_set_infusion_duration.o [1]
g_scr_set_infusion_speed_widgets
                        0x08028370    0x88  Data  Lc  app_scr_set_infusion_speed.o [1]
g_scr_set_max_clean_tube_dose_widgets
                        0x0802ac78    0x24  Data  Lc  app_scr_set_max_clean_tube_dose.o [1]
g_scr_set_peek_mode_duration_widgets
                        0x08027d90    0xb4  Data  Lc  app_scr_set_peek_mode_duration.o [1]
g_scr_set_peek_mode_speed_widgets
                        0x080283f8    0x88  Data  Lc  app_scr_set_peek_mode_speed.o [1]
g_scr_set_time_widgets  0x08028d0c    0x50  Data  Lc  app_scr_set_time.o [1]
g_scr_set_total_dose_widgets
                        0x08028bc8    0x54  Data  Lc  app_scr_set_total_dose.o [1]
g_scr_set_year_widgets  0x0802da2c    0x14  Data  Lc  app_scr_set_year.o [1]
g_scr_task_confirm_widgets
                        0x080287c8    0x68  Data  Lc  app_scr_task_confirm.o [1]
g_screen_current        0x20007b54     0x4  Data  Lc  screen.o [1]
g_screen_handlers       0x200079a8     0xc  Data  Lc  screen.o [1]
g_screen_home_id        0x20007b58     0x4  Data  Lc  screen.o [1]
g_screen_list           0x2000007c     0x4  Data  Lc  screen.o [1]
g_screen_list_inter     0x20007954    0x10  Data  Lc  screen.o [1]
g_screen_list_nodes     0x20004ce4   0x320  Data  Lc  screen.o [1]
g_set_clean_tube_dose_widgets
                        0x0802ad98    0x24  Data  Lc  scr_set_clean_tube_dose.o [1]
g_set_data_time         0x2000001c     0x8  Data  Lc  app_scr_set_date.o [1]
g_set_menu_items        0x0802e214    0x10  Data  Lc  app_set_menu.o [1]
g_set_menu_widgets      0x0802da54    0x14  Data  Lc  app_set_menu.o [1]
g_set_time              0x200079b4     0x8  Data  Lc  app_scr_set_time.o [1]
g_slaver_version        0x20000090    0x10  Data  Lc  version.o [1]
g_slaver_version_temp   0x200078f4    0x10  Data  Lc  app_mcu_comm.o [1]
g_sleep_before_wakeup_s
                        0x20000014     0x4  Data  Lc  app_common.o [1]
g_sleep_is_can_enter    0x20007c06     0x1  Data  Lc  scr_sleep.o [1]
g_sleep_is_need_exit    0x20007bee     0x1  Data  Lc  app_sleep.o [1]
g_sleep_widgets         0x0800384e     0x2  Data  Lc  scr_sleep.o [1]
g_sst25_flash_dev       0x20007ac0     0x4  Data  Lc  drv_sst25_flash.o [1]
g_sst25_flash_file      0x200079d4     0x8  Data  Lc  drv_sst25_flash.o [1]
g_sst25_flash_spi       0x20007924    0x10  Data  Lc  drv_sst25_flash.o [1]
g_sst25_flash_spi_file  0x20000068     0x4  Data  Lc  drv_sst25_flash.o [1]
g_sst25_flash_spi_file_inter
                        0x20000060     0x8  Data  Lc  drv_sst25_flash.o [1]
g_statusbar_battery_icon_id_map
                        0x0802f2e4     0x8  Data  Lc  ui_statusbar.o [1]
g_statusbar_icon_widget_id_map
                        0x0802eefc     0xc  Data  Lc  ui_statusbar.o [1]
g_stop_watch            0x200077ec    0x1c  Data  Gb  stop_watch.o [1]
g_stop_watch_childs     0x20005b4c   0x190  Data  Gb  stop_watch.o [1]
g_stop_watch_is_enable  0x20007c09     0x1  Data  Lc  stop_watch.o [1]
g_string_data_ptr       0x20007b74     0x4  Data  Lc  string_data.o [1]
g_string_data_simplified_chinese
                        0x08022fa0   0x538  Data  Lc  string_data.o [1]
g_system_mode           0x200000aa     0x1  Data  Lc  mid_common.o [1]
g_system_monitor_pressure_too_small_count
                        0x20007ab0     0x4  Data  Lc  app_system_monitor.o [1]
g_test_lifetime_infusion_param
                        0x20007798    0x1c  Data  Gb  app_common.o [1]
g_three_valve_battery_low_counter
                        0x20007ba0     0x4  Data  Gb  three_valve_motor.o [1]
g_three_valve_battery_low_encoder_error_counter
                        0x20007ba4     0x4  Data  Gb  three_valve_motor.o [1]
g_three_valve_battery_when_empty
                        0x20007ba8     0x4  Data  Gb  three_valve_motor.o [1]
g_three_valve_motor_check_last_encoder_time
                        0x20007b94     0x4  Data  Gb  three_valve_motor.o [1]
g_three_valve_motor_direction_error_count
                        0x20007b88     0x4  Data  Gb  three_valve_motor.o [1]
g_three_valve_motor_direction_error_total
                        0x20007b8c     0x4  Data  Gb  three_valve_motor.o [1]
g_three_valve_motor_encoder
                        0x20007b78     0x4  Data  Gb  three_valve_motor.o [1]
g_three_valve_motor_expect_encoder
                        0x20007b7c     0x4  Data  Gb  three_valve_motor.o [1]
g_three_valve_motor_is_IN1_pin_as_PWM
                        0x20007ac4     0x4  Data  Gb  drv_stf_motor.o [1]
g_three_valve_motor_is_IN2_pin_as_PWM
                        0x20007ac8     0x4  Data  Gb  drv_stf_motor.o [1]
g_three_valve_motor_is_event_set
                        0x20007c0c     0x1  Data  Gb  three_valve_motor.o [1]
g_three_valve_motor_last_encoder
                        0x20007b90     0x4  Data  Gb  three_valve_motor.o [1]
g_three_valve_motor_monitor_start_time
                        0x20007b98     0x4  Data  Gb  three_valve_motor.o [1]
g_three_valve_motor_pwm_step_num
                        0x20000088     0x4  Data  Gb  three_valve_motor.o [1]
g_three_valve_motor_run_start_pwm_level
                        0x20000084     0x4  Data  Gb  three_valve_motor.o [1]
g_three_valve_motor_running_dir
                        0x20007c0b     0x1  Data  Gb  three_valve_motor.o [1]
g_three_valve_motor_soft_run_pwm_level
                        0x20007b9c     0x4  Data  Gb  three_valve_motor.o [1]
g_three_valve_motor_state
                        0x20007c0a     0x1  Data  Gb  three_valve_motor.o [1]
g_three_valve_motor_stop_cause
                        0x20007b80     0x4  Data  Gb  three_valve_motor.o [1]
g_three_valve_motor_stop_handler
                        0x20007b84     0x4  Data  Gb  three_valve_motor.o [1]
g_tick_time_last_read_str_ms
                        0x20007b68     0x4  Data  Lc  ssz_tick_time.o [1]
g_tick_time_new_tick_flag
                        0x20007b6c     0x4  Data  Lc  ssz_tick_time.o [1]
g_tick_time_now_ms      0x20007b64     0x4  Data  Lc  ssz_tick_time.o [1]
g_tick_time_now_str     0x2000784c    0x14  Data  Lc  ssz_tick_time.o [1]
g_time_last_read_str_time
                        0x200079fc     0x8  Data  Lc  ssz_time.o [1]
g_time_now_str          0x20007860    0x14  Data  Lc  ssz_time.o [1]
g_timer_mgr             0x20005004   0x2e0  Data  Lc  timer.o [1]
g_tip_popup_widgets     0x0802a2a8    0x2c  Data  Lc  scr_tip_popup.o [1]
g_tmp_buff_is_used      0x20007bd8     0x2  Data  Lc  ssz_common.o [1]
g_ui_all_view_list      0x20007964    0x10  Data  Lc  ui_view.o [1]
g_ui_desktop_view       0x20007bcc     0x4  Data  Lc  ui_view.o [1]
g_ui_draw_context       0x2000008c     0x4  Data  Gb  ui_draw.o [1]
g_ui_draw_context_tmp   0x200074ac    0x38  Data  Gb  ui_draw.o [1]
g_ui_draw_context_work  0x20007474    0x38  Data  Gb  ui_draw.o [1]
g_ui_draw_default_context
                        0x08029894    0x38  Data  Gb  ui_draw.o [1]
g_ui_draw_is_use_tmp_context
                        0x20007c0e     0x1  Data  Gb  ui_draw.o [1]
g_ui_focused_view       0x20007bd0     0x4  Data  Lc  ui_view.o [1]
g_ui_images             0x200052e4   0x2d0  Data  Lc  ssz_ui_view_config.o [1]
g_ui_img_list           0x200065d0    0xd4  Data  Lc  ssz_ui_view_config.o [1]
g_ui_is_someone_dirty   0x20007c10     0x1  Data  Lc  ui_view.o [1]
g_ui_lables             0x20004960   0x384  Data  Lc  ssz_ui_view_config.o [1]
g_ui_line_cache_is_valid
                        0x20007c0f     0x1  Data  Lc  ui_draw.o [1]
g_ui_line_cache_mode    0x20007bc8     0x4  Data  Lc  ui_draw.o [1]
g_ui_line_cache_x       0x20007bb0     0x4  Data  Lc  ui_draw.o [1]
g_ui_line_cache_x_max   0x20007bb8     0x4  Data  Lc  ui_draw.o [1]
g_ui_line_cache_x_min   0x20007bb4     0x4  Data  Lc  ui_draw.o [1]
g_ui_line_cache_x_size  0x20007bac     0x4  Data  Lc  ui_draw.o [1]
g_ui_line_cache_y       0x20007bbc     0x4  Data  Lc  ui_draw.o [1]
g_ui_line_cache_y_max   0x20007bc4     0x4  Data  Lc  ui_draw.o [1]
g_ui_line_cache_y_min   0x20007bc0     0x4  Data  Lc  ui_draw.o [1]
g_ui_list_pos_indicator
                        0x200071a8    0x40  Data  Lc  ssz_ui_view_config.o [1]
g_ui_memory             0x080281b0    0xa0  Data  Lc  ssz_ui_view_config.o [1]
g_ui_number_edit        0x20005f9c   0x138  Data  Lc  ssz_ui_view_config.o [1]
g_ui_one_line_cache     0x20006ab8    0x80  Data  Lc  ui_draw.o [1]
g_ui_page_control       0x20006e40    0x5c  Data  Lc  ssz_ui_view_config.o [1]
g_ui_progress_bar       0x2000735c    0x38  Data  Lc  ssz_ui_view_config.o [1]
g_ui_status_bar         0x200060d4   0x110  Data  Lc  ssz_ui_view_config.o [1]
g_ui_text_list          0x200061e4   0x10c  Data  Lc  ssz_ui_view_config.o [1]
g_ui_view_alloc_arr     0x20005e5c   0x140  Data  Lc  ui_view.o [1]
g_ui_view_is_enable_trace
                        0x20007c11     0x1  Data  Lc  ui_view.o [1]
g_ui_view_is_enable_trace_draw
                        0x20007c12     0x1  Data  Lc  ui_view.o [1]
g_ui_view_list_nodes    0x200064e0    0xf0  Data  Lc  ui_view.o [1]
g_ui_view_timer_manager
                        0x20007974    0x10  Data  Lc  ui_view.o [1]
g_ui_view_timer_manager_nodes
                        0x20007098    0x50  Data  Lc  ui_view.o [1]
g_ui_windows            0x2000680c    0x9c  Data  Lc  ssz_ui_view_config.o [1]
g_unlock_tip_widgets    0x0802a2d4    0x2c  Data  Lc  scr_unlock_tip.o [1]
g_user_set_infusion_para
                        0x200075fc    0x28  Data  Gb  app_common.o [1]
g_version_build_time    0x0802d0b0    0x1c  Data  Lc  version.o [1]
g_version_info          0x0802ea74    0x10  Data  Lc  version.o [1]
g_version_str           0x0802d63c    0x18  Data  Lc  version.o [1]
g_vibrator_motor_is_running
                        0x20007c13     0x1  Data  Gb  vibrater_motor.o [1]
g_voice_device_is_opened
                        0x20007c14     0x1  Data  Lc  voice.o [1]
get_char_info           0x0801aa09    0x24  Code  Gb  font_data.o [1]
get_dynamic_string      0x0801124d    0x1e  Code  Gb  string_data.o [1]
get_font                0x0801a9df    0x22  Code  Gb  font_data.o [1]
get_image               0x08014555    0x1c  Code  Gb  image_data.o [1]
get_module_name         0x080029c1     0xa  Code  Gb  common.o [1]
get_pressure_threshold  0x08005483     0x6  Code  Gb  param.o [1]
get_sleep_secs_before_wakeup()
                        0x0800a9cf     0x6  Code  Gb  app_common.o [1]
get_string              0x0801122f    0x1e  Code  Gb  string_data.o [1]
get_user_infusion_para(UserSetInfusionParaType)
                        0x0800a94f    0x78  Code  Gb  app_common.o [1]
hadc                    0x20006fa4    0x54  Data  Gb  adc.o [1]
hspi1                   0x20006e9c    0x58  Data  Gb  spi.o [1]
hspi2                   0x20006ef4    0x58  Data  Gb  spi.o [1]
hspi3                   0x20006f4c    0x58  Data  Gb  spi.o [1]
htim10                  0x200073cc    0x38  Data  Gb  tim.o [1]
htim11                  0x20007404    0x38  Data  Gb  tim.o [1]
htim3                   0x20007394    0x38  Data  Gb  tim.o [1]
htim5                   0x2000743c    0x38  Data  Gb  tim.o [1]
huart1                  0x200071e8    0x40  Data  Gb  usart.o [1]
huart2                  0x20007228    0x40  Data  Gb  usart.o [1]
huart3                  0x20007268    0x40  Data  Gb  usart.o [1]
infusion_motor_change_speed
                        0x08008ff5    0x3c  Code  Gb  infusion_motor.o [1]
infusion_motor_encoder_after_start
                        0x08008f0f     0x6  Code  Gb  infusion_motor.o [1]
infusion_motor_init     0x08008fb9    0x1c  Code  Gb  infusion_motor.o [1]
infusion_motor_is_running
                        0x08008f15    0x12  Code  Gb  infusion_motor.o [1]
infusion_motor_monitor_start
                        0x08008c89    0x38  Code  Gb  infusion_motor.o [1]
infusion_motor_monitor_stop
                        0x08008cc5     0xa  Code  Gb  infusion_motor.o [1]
infusion_motor_on_direction_wrong
                        0x08008f31    0x88  Code  Gb  infusion_motor.o [1]
infusion_motor_on_finish_target
                        0x08008f27     0xa  Code  Gb  infusion_motor.o [1]
infusion_motor_run_check
                        0x080089d9   0x2b0  Code  Gb  infusion_motor.o [1]
infusion_motor_speed_change_start
                        0x08008fd5    0x1e  Code  Gb  infusion_motor.o [1]
infusion_motor_speed_change_stop
                        0x080090d9     0xa  Code  Gb  infusion_motor.o [1]
infusion_motor_start    0x08008e09    0x10  Code  Gb  infusion_motor.o [1]
infusion_motor_start_ex
                        0x08008e19     0xe  Code  Gb  infusion_motor.o [1]
infusion_motor_start_internal
                        0x08008ccf   0x13a  Code  Gb  infusion_motor.o [1]
infusion_motor_stop     0x08008e27    0xe8  Code  Gb  infusion_motor.o [1]
init_all                0x0801dcfd    0x14  Code  Gb  init.o [1]
init_app()              0x0801dcc9    0x34  Code  Gb  init.o [1]
init_common()           0x0801db95    0x38  Code  Gb  init.o [1]
init_driver             0x0801dbcd    0x2c  Code  Gb  init.o [1]
init_middleware()       0x0801dbf9    0xcc  Code  Gb  init.o [1]
init_mparams            0x08018847    0x32  Code  Lc  dlmalloc.o [3]
init_top                0x08018879    0x34  Code  Lc  dlmalloc.o [3]
is_allow_check_no_operate()
                        0x0800aa3f    0x40  Code  Gb  app_common.o [1]
is_auto_power_off()     0x0800aa0f     0x6  Code  Gb  app_common.o [1]
is_battery_exist        0x080050e1    0x10  Code  Gb  mid_common.o [1]
is_battery_low          0x20007c0d     0x1  Data  Gb  three_valve_motor.o [1]
is_battery_low_when_motor_run
                        0x08005103     0x6  Code  Gb  mid_common.o [1]
is_bubble_alarm_enable  0x0800548f     0x6  Code  Gb  param.o [1]
is_keypad_locked()      0x0800aab1     0x6  Code  Gb  app_common.o [1]
is_module_enable_output
                        0x080029b5     0xc  Code  Gb  common.o [1]
is_pill_box_install     0x080050f1     0x6  Code  Gb  mid_common.o [1]
is_pressure_adc_ready_after_installed
                        0x080050f7     0x6  Code  Gb  mid_common.o [1]
is_sleep_allow()        0x0800aabd    0x36  Code  Gb  app_common.o [1]
is_use_extern_power     0x080050db     0x6  Code  Gb  mid_common.o [1]
isdigit                 0x080112c3     0xa  Code  Gb  isdigit.o [3]
kDrvComIODev            0x0802e644    0x10  Data  Gb  drv_com.o [1]
kDrvSST25FlashIODev     0x0802e654    0x10  Data  Gb  drv_sst25_flash.o [1]
kSszSPIIODev            0x0802e6d4    0x10  Data  Gb  ssz_spi.o [1]
kSszSimI2CMasterIODev   0x0802e6c4    0x10  Data  Gb  ssz_sim_i2c.o [1]
key_clear_all_handler   0x0801493f    0x3a  Code  Gb  key.o [1]
key_combination_handle  0x08014b81    0xb8  Code  Lc  key.o [1]
key_disable_handle_once
                        0x08014d79     0x8  Code  Gb  key.o [1]
key_handle              0x08014aab    0xd6  Code  Lc  key.o [1]
key_hold_time           0x08014a0d    0x10  Code  Gb  key.o [1]
key_init                0x08014881    0x2c  Code  Gb  key.o [1]
key_is_any_key_pressed_except
                        0x080149bf    0x28  Code  Gb  key.o [1]
key_is_pressed          0x080149a9    0x16  Code  Gb  key.o [1]
key_press_handle        0x08014c39    0xca  Code  Lc  key.o [1]
key_pressed_counter     0x08014a8b    0x20  Code  Lc  key.o [1]
key_release_handle      0x08014d03    0x76  Code  Lc  key.o [1]
key_scan                0x08014d81   0x208  Code  Gb  key.o [1]
key_scan_timer_out      0x08014865    0x1c  Code  Lc  key.o [1]
key_set_combination_monitor_event_handler
                        0x08014933     0xc  Code  Gb  key.o [1]
key_set_handler         0x080148eb    0x1e  Code  Gb  key.o [1]
key_set_handler_with_repeat
                        0x08014909    0x1e  Code  Gb  key.o [1]
key_set_hold_time       0x08014a1d    0x6e  Code  Gb  key.o [1]
key_set_key_repeat_speed_by_time
                        0x08014979    0x30  Code  Gb  key.o [1]
key_set_monitor_event_handler
                        0x08014927     0xc  Code  Gb  key.o [1]
key_start_scan          0x080148ad    0x34  Code  Gb  key.o [1]
key_state               0x080149e7    0x26  Code  Gb  key.o [1]
key_stop_scan           0x080148e1     0xa  Code  Gb  key.o [1]
led_flash               0x08018309    0x42  Code  Gb  led.o [1]
led_flash_period_timer_out
                        0x080182f3    0x16  Code  Lc  led.o [1]
led_green_off           0x0801823d    0x10  Code  Gb  led.o [1]
led_green_on            0x0801820d    0x10  Code  Gb  led.o [1]
led_init                0x0801826d    0x10  Code  Gb  led.o [1]
led_red_off             0x0801825d    0x10  Code  Gb  led.o [1]
led_red_on              0x0801822d    0x10  Code  Gb  led.o [1]
led_resume              0x0801835b    0x14  Code  Gb  led.o [1]
led_stop_flash          0x0801834b    0x10  Code  Gb  led.o [1]
led_turn_off            0x080182e7     0xc  Code  Gb  led.o [1]
led_turn_off_internal   0x080182bf    0x16  Code  Gb  led.o [1]
led_turn_on             0x080182d5    0x12  Code  Gb  led.o [1]
led_turn_on_internal    0x0801827d    0x42  Code  Gb  led.o [1]
led_yellow_off          0x0801824d    0x10  Code  Gb  led.o [1]
led_yellow_on           0x0801821d    0x10  Code  Gb  led.o [1]
lock_keypad()           0x0800aa7f    0x1e  Code  Gb  app_common.o [1]
log_event_id_to_const_str
                        0x0800557d   0x132  Code  Gb  param.o [1]
log_event_type_to_const_str
                        0x08005545    0x38  Code  Gb  param.o [1]
main                    0x08010675    0x34  Code  Gb  main.o [1]
main_handle_all         0x0801a51d    0x32  Code  Gb  main_run.o [1]
main_handle_bt_uart_recv
                        0x0801a4d3     0xa  Code  Lc  main_run.o [1]
main_handle_mcu_uart_recv
                        0x0801a4dd     0xa  Code  Lc  main_run.o [1]
main_handle_pc_uart_recv
                        0x0801a4c9     0xa  Code  Lc  main_run.o [1]
main_init_event_handler
                        0x0801a4e7    0x24  Code  Lc  main_run.o [1]
main_run                0x0801a54f    0x30  Code  Gb  main_run.o [1]
memchr                  0x08019d75          Code  Gb  memchr.o [5]
mia_adc_vref_disable    0x0800473b     0xe  Code  Gb  mid_adc.o [1]
mid_adc_config_ADC_channel
                        0x08004791    0x56  Code  Gb  mid_adc.o [1]
mid_adc_get_ADC_channel_value
                        0x080047f5    0x14  Code  Gb  mid_adc.o [1]
mid_adc_get_average_ADC_channel_value
                        0x08004809    0x8a  Code  Gb  mid_adc.o [1]
mid_adc_init            0x08004749     0x8  Code  Gb  mid_adc.o [1]
mid_adc_start_and_get_ADC_value
                        0x08004751    0x40  Code  Gb  mid_adc.o [1]
mid_adc_vref_enable     0x0800472d     0xe  Code  Gb  mid_adc.o [1]
mparams                 0x20007820    0x18  Data  Lc  dlmalloc.o [3]
msg_compare_by_msg_id   0x0800e7d9    0x12  Code  Gb  msg.o [1]
msg_handle              0x0800e731    0x1e  Code  Gb  msg.o [1]
msg_handle_all          0x0800e751    0x26  Code  Gb  msg.o [1]
msg_init                0x0800e715    0x1c  Code  Gb  msg.o [1]
msg_is_exist            0x0800e7eb    0x22  Code  Gb  msg.o [1]
msg_notify_int_at_once  0x0800e7bd    0x12  Code  Gb  msg.o [1]
msg_post                0x0800e777    0x28  Code  Lc  msg.o [1]
msg_post_int            0x0800e79f     0xa  Code  Gb  msg.o [1]
msg_post_two_param      0x0800e7a9    0x14  Code  Gb  msg.o [1]
msg_set_handler         0x0800e7cf     0xa  Code  Gb  msg.o [1]
ndigs                   0x0800e140    0x28  Data  Lc  xstoul.o [3]
operator new (unsigned int, void *)
                        0x0801e991     0x4  Code  Gb  ssz_ui_view_config.o [1]
pill_box_install_left_detect
                        0x08004541    0x18  Code  Gb  pill_box_install_detect.o [1]
pill_box_install_right_detect
                        0x08004559    0x18  Code  Gb  pill_box_install_detect.o [1]
pill_box_install_sensor_init
                        0x080044e5    0x1c  Code  Gb  pill_box_install_detect.o [1]
pill_box_install_sensor_left_pwr_disable
                        0x08004521    0x10  Code  Gb  pill_box_install_detect.o [1]
pill_box_install_sensor_left_pwr_enable
                        0x08004501    0x10  Code  Gb  pill_box_install_detect.o [1]
pill_box_install_sensor_right_pwr_disable
                        0x08004531    0x10  Code  Gb  pill_box_install_detect.o [1]
pill_box_install_sensor_right_pwr_enable
                        0x08004511    0x10  Code  Gb  pill_box_install_detect.o [1]
power_off()             0x0800a9d5    0x3a  Code  Gb  app_common.o [1]
prepare_pressure_adc_before_infusion_start()
                        0x0800aaf3    0x5c  Code  Gb  app_common.o [1]
prepend_alloc           0x080188ad   0x36c  Code  Lc  dlmalloc.o [3]
pressure_adc_when_installed
                        0x080050fd     0x6  Code  Gb  mid_common.o [1]
pressure_and_bubble_sensor_is_pwr_enable
                        0x080045a5     0x6  Code  Gb  pressure_bubble_sensor.o [1]
pressure_and_bubble_sensor_pwr_disable
                        0x08004591    0x14  Code  Gb  pressure_bubble_sensor.o [1]
pressure_and_bubble_sensor_pwr_enable
                        0x0800457d    0x14  Code  Gb  pressure_bubble_sensor.o [1]
pressure_bubble_sensor_get_pressure_sensor_ADC_average_value
                        0x080045cd     0xa  Code  Gb  pressure_bubble_sensor.o [1]
pressure_bubble_sensor_is_generate_bubble
                        0x080045ab    0x16  Code  Gb  pressure_bubble_sensor.o [1]
printf                  0x080026a5    0x24  Code  Gb  printf.o [3]
putchar                 0x080026c9    0x28  Code  Gb  putchar.o [3]
puts                    0x0800d189    0x34  Code  Gb  puts.o [3]
record_log_add          0x08005877    0x50  Code  Gb  record_log.o [1]
record_log_add_info     0x080057ff    0x50  Code  Gb  record_log.o [1]
record_log_add_info_with_data
                        0x080057d9    0x26  Code  Gb  record_log.o [1]
record_log_add_with_data
                        0x0800584f    0x28  Code  Gb  record_log.o [1]
record_log_add_with_data_ex
                        0x08005967    0x68  Code  Gb  record_log.o [1]
record_log_add_with_ints
                        0x080058c7    0x54  Code  Gb  record_log.o [1]
record_log_add_with_one_int
                        0x0800591b    0x14  Code  Gb  record_log.o [1]
record_log_add_with_three_int
                        0x08005947    0x20  Code  Gb  record_log.o [1]
record_log_add_with_two_int
                        0x0800592f    0x18  Code  Gb  record_log.o [1]
record_log_clear        0x08005b63    0x12  Code  Gb  record_log.o [1]
record_log_data_to_var  0x08005a3b    0x76  Code  Gb  record_log.o [1]
record_log_get          0x08005a17    0x24  Code  Gb  record_log.o [1]
record_log_get_base_index
                        0x080059cf    0x48  Code  Gb  record_log.o [1]
record_log_info         0x08005b57     0xc  Code  Gb  record_log.o [1]
record_log_init         0x08005755    0x7c  Code  Gb  record_log.o [1]
record_log_is_inited    0x080057d1     0x8  Code  Gb  record_log.o [1]
record_log_size         0x08005b29    0x2e  Code  Gb  record_log.o [1]
record_log_to_str       0x08005cd1    0x6e  Code  Gb  record_log_text.o [1]
record_log_var_to_data  0x08005ab1    0x78  Code  Gb  record_log.o [1]
record_log_var_to_str   0x08005b89   0x12a  Code  Gb  record_log_text.o [1]
rtc_get                 0x080036b3     0x4  Code  Gb  mid_rtc.o [1]
rtc_init_time_if_not_set
                        0x08003735    0x84  Code  Gb  mid_rtc.o [1]
rtc_scan                0x08003605    0xae  Code  Gb  mid_rtc.o [1]
rtc_set                 0x080036b7    0x2e  Code  Gb  mid_rtc.o [1]
rtc_set_date            0x0800370d    0x28  Code  Gb  mid_rtc.o [1]
rtc_set_time            0x080036e5    0x28  Code  Gb  mid_rtc.o [1]
rtc_start_scan          0x080035d9    0x22  Code  Gb  mid_rtc.o [1]
rtc_stop_scan           0x080035fb     0xa  Code  Gb  mid_rtc.o [1]
run_test_after_main     0x0801dd11     0x2  Code  Gb  run_test_after_main.o [1]
salloc_config           0x0801f111    0x4c  Code  Gb  simple_alloc_config.o [1]
salloc_delete           0x0801ae2f    0x2a  Code  Gb  simple_alloc.o [1]
salloc_new              0x0801addb    0x54  Code  Gb  simple_alloc.o [1]
salloc_regist           0x0801ada1    0x3a  Code  Gb  simple_alloc.o [1]
scr_battery_calibration_callback(ScreenStruct *, UIMsg *)
                        0x0801cd93    0x4c  Code  Lc  scr_battery_calibration.o [1]
scr_battery_calibration_enter
                        0x0801cddf    0x16  Code  Gb  scr_battery_calibration.o [1]
scr_battery_calibration_on_press_back_key(KeyID, int)
                        0x0801cc91     0x8  Code  Lc  scr_battery_calibration.o [1]
scr_battery_calibration_on_press_ok_key(KeyID, int)
                        0x0801cc35    0x5c  Code  Lc  scr_battery_calibration.o [1]
scr_battery_calibration_on_scr_activate(ScreenStruct *, UIView *)
                        0x0801cd2b    0x68  Code  Lc  scr_battery_calibration.o [1]
scr_battery_calibration_on_scr_create(ScreenStruct *)
                        0x0801cc99     0x2  Code  Lc  scr_battery_calibration.o [1]
scr_battery_calibration_on_scr_widget_init(ScreenStruct *, UIView *)
                        0x0801cc9b    0x4a  Code  Lc  scr_battery_calibration.o [1]
scr_battery_calibration_update()
                        0x0801cce5    0x46  Code  Lc  scr_battery_calibration.o [1]
scr_clean_tube_callback(ScreenStruct *, UIMsg *)
                        0x08011c6b    0x5c  Code  Lc  scr_clean_tube.o [1]
scr_clean_tube_enter    0x08011cc7    0x16  Code  Gb  scr_clean_tube.o [1]
scr_clean_tube_on_press_back_key(KeyID, int)
                        0x08011ba1    0x28  Code  Lc  scr_clean_tube.o [1]
scr_clean_tube_on_press_start_key(KeyID, int)
                        0x08011bc9    0x1c  Code  Lc  scr_clean_tube.o [1]
scr_clean_tube_on_scr_activate(ScreenStruct *, UIView *)
                        0x08011c3b    0x30  Code  Lc  scr_clean_tube.o [1]
scr_clean_tube_on_scr_create(ScreenStruct *)
                        0x08011be5     0x2  Code  Lc  scr_clean_tube.o [1]
scr_clean_tube_on_scr_widget_init(ScreenStruct *, UIView *)
                        0x08011be7    0x34  Code  Lc  scr_clean_tube.o [1]
scr_clean_tube_on_select_if_stop_clean(PopupReturnCode, int)
                        0x08011b7b    0x26  Code  Lc  scr_clean_tube.o [1]
scr_clean_tube_update_progress()
                        0x08011c1b    0x20  Code  Lc  scr_clean_tube.o [1]
scr_clean_tube_update_view(ScreenStruct *)
                        0x08011b09    0x72  Code  Lc  scr_clean_tube.o [1]
scr_factory_mode_callback(ScreenStruct *, UIMsg *)
                        0x080152ad    0x8a  Code  Lc  scr_factory_mode.o [1]
scr_factory_mode_enter  0x08015337    0x22  Code  Gb  scr_factory_mode.o [1]
scr_factory_mode_on_press_back_key(KeyID, int)
                        0x080151ef     0x8  Code  Lc  scr_factory_mode.o [1]
scr_factory_mode_on_press_ok_key(KeyID, int)
                        0x0801501b   0x1d4  Code  Lc  scr_factory_mode.o [1]
scr_factory_mode_on_scr_activate(ScreenStruct *, UIView *)
                        0x08015265    0x40  Code  Lc  scr_factory_mode.o [1]
scr_factory_mode_on_scr_create(ScreenStruct *)
                        0x080151f7     0x2  Code  Lc  scr_factory_mode.o [1]
scr_factory_mode_on_scr_widget_init(ScreenStruct *, UIView *)
                        0x080151f9    0x6c  Code  Lc  scr_factory_mode.o [1]
scr_factory_mode_on_select_bubble_alarm_setting(PopupReturnCode, int)
                        0x08014fd3    0x48  Code  Gb  scr_factory_mode.o [1]
scr_layout_load_one_column_list(ScreenStruct *, char const *, char const *, char const *)
                        0x0801a93b    0x4c  Code  Gb  scr_layout.o [1]
scr_layout_load_progress(ScreenStruct *, char const *, char const *, char const *)
                        0x0801a987    0x22  Code  Gb  scr_layout.o [1]
scr_layout_load_standard(ScreenStruct *, char const *, char const *, char const *)
                        0x0801a8f5    0x46  Code  Gb  scr_layout.o [1]
scr_new_pressure_calibration_auto_update()
                        0x0801c125    0x52  Code  Lc  scr_new_pressure_calibration.o [1]
scr_new_pressure_calibration_callback(ScreenStruct *, UIMsg *)
                        0x0801c6e5    0x5c  Code  Lc  scr_new_pressure_calibration.o [1]
scr_new_pressure_calibration_enter
                        0x0801c741    0x16  Code  Gb  scr_new_pressure_calibration.o [1]
scr_new_pressure_calibration_get_adc_time_out()
                        0x0801c1d5    0x1c  Code  Gb  scr_new_pressure_calibration.o [1]
scr_new_pressure_calibration_on_motor_stop(int, int)
                        0x0801c1f1    0x30  Code  Gb  scr_new_pressure_calibration.o [1]
scr_new_pressure_calibration_on_press_back_key(KeyID, int)
                        0x0801c505     0xc  Code  Lc  scr_new_pressure_calibration.o [1]
scr_new_pressure_calibration_on_press_left_key(KeyID, int)
                        0x0801c52d    0x50  Code  Lc  scr_new_pressure_calibration.o [1]
scr_new_pressure_calibration_on_press_ok_key(KeyID, int)
                        0x0801c269   0x29c  Code  Lc  scr_new_pressure_calibration.o [1]
scr_new_pressure_calibration_on_press_right_key(KeyID, int)
                        0x0801c57d    0x50  Code  Lc  scr_new_pressure_calibration.o [1]
scr_new_pressure_calibration_on_press_start_key(KeyID, int)
                        0x0801c511    0x16  Code  Lc  scr_new_pressure_calibration.o [1]
scr_new_pressure_calibration_on_scr_activate(ScreenStruct *, UIView *)
                        0x0801c693    0x52  Code  Lc  scr_new_pressure_calibration.o [1]
scr_new_pressure_calibration_on_scr_create(ScreenStruct *)
                        0x0801c5cd    0x32  Code  Lc  scr_new_pressure_calibration.o [1]
scr_new_pressure_calibration_on_scr_widget_init(ScreenStruct *, UIView *)
                        0x0801c5ff    0x94  Code  Lc  scr_new_pressure_calibration.o [1]
scr_new_pressure_calibration_start_run()
                        0x0801c221    0x1e  Code  Gb  scr_new_pressure_calibration.o [1]
scr_new_pressure_calibration_stop_run()
                        0x0801c23f    0x22  Code  Gb  scr_new_pressure_calibration.o [1]
scr_new_pressure_calibration_update()
                        0x0801c1b1    0x24  Code  Gb  scr_new_pressure_calibration.o [1]
scr_new_pressure_calibration_update_run_state()
                        0x0801c177    0x3a  Code  Gb  scr_new_pressure_calibration.o [1]
scr_password_popup_callback(ScreenStruct *, UIMsg *)
                        0x08013d2d    0x52  Code  Lc  scr_password_popup.o [1]
scr_password_popup_enter
                        0x08013dd5     0x8  Code  Gb  scr_password_popup.o [1]
scr_password_popup_enter_ex(int *, ScreenStruct *, void (*)(PopupReturnCode))
                        0x08013d7f    0x44  Code  Gb  scr_password_popup.o [1]
scr_password_popup_on_press_back_key(KeyID, int)
                        0x08013b41   0x116  Code  Lc  scr_password_popup.o [1]
scr_password_popup_on_press_ok_key(KeyID, int)
                        0x080139ad   0x194  Code  Lc  scr_password_popup.o [1]
scr_password_popup_on_scr_activate(ScreenStruct *, UIView *)
                        0x08013d15    0x18  Code  Lc  scr_password_popup.o [1]
scr_password_popup_on_scr_create(ScreenStruct *)
                        0x08013c57     0x2  Code  Lc  scr_password_popup.o [1]
scr_password_popup_on_scr_widget_init(ScreenStruct *, UIView *)
                        0x08013c59    0xbc  Code  Lc  scr_password_popup.o [1]
scr_precision_calibration_callback(ScreenStruct *, UIMsg *)
                        0x0801cb85    0x58  Code  Lc  scr_precision_calibration.o [1]
scr_precision_calibration_enter
                        0x0801cbdd    0x16  Code  Gb  scr_precision_calibration.o [1]
scr_precision_calibration_on_press_back_key(KeyID, int)
                        0x0801ca3f     0xc  Code  Lc  scr_precision_calibration.o [1]
scr_precision_calibration_on_press_left_key(KeyID, int)
                        0x0801c917    0x94  Code  Lc  scr_precision_calibration.o [1]
scr_precision_calibration_on_press_ok_key(KeyID, int)
                        0x0801c843    0xd4  Code  Lc  scr_precision_calibration.o [1]
scr_precision_calibration_on_press_right_key(KeyID, int)
                        0x0801c9ab    0x94  Code  Lc  scr_precision_calibration.o [1]
scr_precision_calibration_on_press_start_key(KeyID, int)
                        0x0801ca4b    0x60  Code  Lc  scr_precision_calibration.o [1]
scr_precision_calibration_on_scr_activate(ScreenStruct *, UIView *)
                        0x0801cb4f    0x36  Code  Lc  scr_precision_calibration.o [1]
scr_precision_calibration_on_scr_create(ScreenStruct *)
                        0x0801caab     0x8  Code  Lc  scr_precision_calibration.o [1]
scr_precision_calibration_on_scr_widget_init(ScreenStruct *, UIView *)
                        0x0801cab3    0x7a  Code  Lc  scr_precision_calibration.o [1]
scr_precision_calibration_start_run()
                        0x0801c811    0x1a  Code  Gb  scr_precision_calibration.o [1]
scr_precision_calibration_stop_run()
                        0x0801c82b    0x18  Code  Gb  scr_precision_calibration.o [1]
scr_precision_calibration_update()
                        0x0801cb2d    0x22  Code  Lc  scr_precision_calibration.o [1]
scr_precision_factor_callback(ScreenStruct *, UIMsg *)
                        0x0801d93d    0x4c  Code  Lc  scr_precision_factor.o [1]
scr_precision_factor_enter
                        0x0801d989    0x16  Code  Gb  scr_precision_factor.o [1]
scr_precision_factor_on_press_back_key(KeyID, int)
                        0x0801d8b5     0x8  Code  Lc  scr_precision_factor.o [1]
scr_precision_factor_on_press_left_key(KeyID, int)
                        0x0801d7b5    0x4a  Code  Lc  scr_precision_factor.o [1]
scr_precision_factor_on_press_ok_key(KeyID, int)
                        0x0801d849    0x6c  Code  Lc  scr_precision_factor.o [1]
scr_precision_factor_on_press_right_key(KeyID, int)
                        0x0801d7ff    0x4a  Code  Lc  scr_precision_factor.o [1]
scr_precision_factor_on_scr_activate(ScreenStruct *, UIView *)
                        0x0801d911    0x2c  Code  Lc  scr_precision_factor.o [1]
scr_precision_factor_on_scr_create(ScreenStruct *)
                        0x0801d8bd     0x2  Code  Lc  scr_precision_factor.o [1]
scr_precision_factor_on_scr_widget_init(ScreenStruct *, UIView *)
                        0x0801d8bf    0x52  Code  Lc  scr_precision_factor.o [1]
scr_precision_on_motor_stop(int, int)
                        0x0801c7d5    0x3c  Code  Gb  scr_precision_calibration.o [1]
scr_pressure_threshold_callback(ScreenStruct *, UIMsg *)
                        0x0801d73b    0x4c  Code  Lc  scr_pressure_threshold.o [1]
scr_pressure_threshold_enter
                        0x0801d787    0x16  Code  Gb  scr_pressure_threshold.o [1]
scr_pressure_threshold_on_press_back_key(KeyID, int)
                        0x0801d6b3     0x8  Code  Lc  scr_pressure_threshold.o [1]
scr_pressure_threshold_on_press_left_key(KeyID, int)
                        0x0801d5cd    0x4a  Code  Lc  scr_pressure_threshold.o [1]
scr_pressure_threshold_on_press_ok_key(KeyID, int)
                        0x0801d661    0x52  Code  Lc  scr_pressure_threshold.o [1]
scr_pressure_threshold_on_press_right_key(KeyID, int)
                        0x0801d617    0x4a  Code  Lc  scr_pressure_threshold.o [1]
scr_pressure_threshold_on_scr_activate(ScreenStruct *, UIView *)
                        0x0801d70f    0x2c  Code  Lc  scr_pressure_threshold.o [1]
scr_pressure_threshold_on_scr_create(ScreenStruct *)
                        0x0801d6bb     0x2  Code  Lc  scr_pressure_threshold.o [1]
scr_pressure_threshold_on_scr_widget_init(ScreenStruct *, UIView *)
                        0x0801d6bd    0x52  Code  Lc  scr_pressure_threshold.o [1]
scr_set_clean_on_select_infusion_mode_select(PopupReturnCode, int)
                        0x0801af55    0x18  Code  Gb  scr_set_clean_tube_dose.o [1]
scr_set_clean_tube_dose_callback(ScreenStruct *, UIMsg *)
                        0x0801b105    0x7c  Code  Lc  scr_set_clean_tube_dose.o [1]
scr_set_clean_tube_dose_enter
                        0x0801b181    0x16  Code  Gb  scr_set_clean_tube_dose.o [1]
scr_set_clean_tube_dose_on_press_back_key(KeyID, int)
                        0x0801afd3     0x8  Code  Lc  scr_set_clean_tube_dose.o [1]
scr_set_clean_tube_dose_on_press_left_key(KeyID, int)
                        0x0801afdb    0x4e  Code  Lc  scr_set_clean_tube_dose.o [1]
scr_set_clean_tube_dose_on_press_ok_key(KeyID, int)
                        0x0801af6d    0x66  Code  Lc  scr_set_clean_tube_dose.o [1]
scr_set_clean_tube_dose_on_press_right_key(KeyID, int)
                        0x0801b029    0x4e  Code  Lc  scr_set_clean_tube_dose.o [1]
scr_set_clean_tube_dose_on_scr_activate(ScreenStruct *, UIView *)
                        0x0801b0d9    0x2c  Code  Lc  scr_set_clean_tube_dose.o [1]
scr_set_clean_tube_dose_on_scr_create(ScreenStruct *)
                        0x0801b077     0x2  Code  Lc  scr_set_clean_tube_dose.o [1]
scr_set_clean_tube_dose_on_scr_widget_init(ScreenStruct *, UIView *)
                        0x0801b079    0x60  Code  Lc  scr_set_clean_tube_dose.o [1]
scr_sleep_callback(ScreenStruct *, UIMsg *)
                        0x0800b7c1    0x4c  Code  Lc  scr_sleep.o [1]
scr_sleep_enter         0x0800b80d    0x3a  Code  Gb  scr_sleep.o [1]
scr_sleep_on_press_ok_key(KeyID, int)
                        0x0800b78d     0x8  Code  Lc  scr_sleep.o [1]
scr_sleep_on_scr_activate(ScreenStruct *, UIView *)
                        0x0800b799    0x28  Code  Lc  scr_sleep.o [1]
scr_sleep_on_scr_create(ScreenStruct *)
                        0x0800b795     0x2  Code  Lc  scr_sleep.o [1]
scr_sleep_on_scr_widget_init(ScreenStruct *, UIView *)
                        0x0800b797     0x2  Code  Lc  scr_sleep.o [1]
scr_sleep_try_to_sleep()
                        0x0800b74d    0x40  Code  Lc  scr_sleep.o [1]
scr_tip_popup_callback(ScreenStruct *, UIMsg *)
                        0x08021c07    0x5e  Code  Lc  scr_tip_popup.o [1]
scr_tip_popup_enter_ex(ScreenID, TipPopupType, char const *, char const *, int, void (*)())
                        0x08021c65    0xd6  Code  Gb  scr_tip_popup.o [1]
scr_tip_popup_on_press_any_key(KeyID, int)
                        0x08021b15     0x8  Code  Lc  scr_tip_popup.o [1]
scr_tip_popup_on_scr_activate(ScreenStruct *, UIView *)
                        0x08021bdf    0x28  Code  Lc  scr_tip_popup.o [1]
scr_tip_popup_on_scr_create(ScreenStruct *)
                        0x08021b1d    0x1c  Code  Lc  scr_tip_popup.o [1]
scr_tip_popup_on_scr_widget_init(ScreenStruct *, UIView *)
                        0x08021b39    0xa6  Code  Lc  scr_tip_popup.o [1]
scr_unlock_tip_callback(ScreenStruct *, UIMsg *)
                        0x08021a7b    0x4c  Code  Lc  scr_unlock_tip.o [1]
scr_unlock_tip_enter()  0x08021ac7    0x3a  Code  Gb  scr_unlock_tip.o [1]
scr_unlock_tip_on_press_any_key(KeyID, int)
                        0x080219d1    0x34  Code  Lc  scr_unlock_tip.o [1]
scr_unlock_tip_on_scr_activate(ScreenStruct *, UIView *)
                        0x08021a61    0x1a  Code  Lc  scr_unlock_tip.o [1]
scr_unlock_tip_on_scr_create(ScreenStruct *)
                        0x08021a05    0x16  Code  Lc  scr_unlock_tip.o [1]
scr_unlock_tip_on_scr_widget_init(ScreenStruct *, UIView *)
                        0x08021a1b    0x46  Code  Lc  scr_unlock_tip.o [1]
screen_activate(ScreenStruct *, bool)
                        0x0800b865    0xd6  Code  Lc  screen.o [1]
screen_backup_context(ScreenStruct *)
                        0x0800bc0f    0x9e  Code  Gb  screen.o [1]
screen_create(ScreenID, void (*)(ScreenStruct *, UIMsg *), void *, Rect *, int)
                        0x0800ba61   0x100  Code  Gb  screen.o [1]
screen_current()        0x0800bd09     0x6  Code  Gb  screen.o [1]
screen_current_id()     0x0800bd0f    0x16  Code  Gb  screen.o [1]
screen_current_view()   0x0800bd25    0x14  Code  Gb  screen.o [1]
screen_deactivate(ScreenStruct *, bool)
                        0x0800b93b    0x56  Code  Lc  screen.o [1]
screen_delete(ScreenStruct *)
                        0x0800bdf5    0x64  Code  Gb  screen.o [1]
screen_delete_by_id(int)
                        0x0800be59    0x3c  Code  Gb  screen.o [1]
screen_delete_by_pos(int)
                        0x0800bd7d    0x78  Code  Gb  screen.o [1]
screen_enter(ScreenID, void (*)(ScreenStruct *, UIMsg *), void *, short const *, int)
                        0x0800b9ad    0x1a  Code  Gb  screen.o [1]
screen_enter_ex(ScreenID, void (*)(ScreenStruct *, UIMsg *), void *, Rect *, short const *, int, int)
                        0x0800b9f9    0x68  Code  Gb  screen.o [1]
screen_enter_full_screen(ScreenID, void (*)(ScreenStruct *, UIMsg *), void *, short const *, int)
                        0x0800b9c7    0x32  Code  Gb  screen.o [1]
screen_find(int)        0x0800bed1    0x3a  Code  Gb  screen.o [1]
screen_go_back()        0x0800bd39     0xc  Code  Gb  screen.o [1]
screen_go_back_to_home()
                        0x0800bd71     0xc  Code  Gb  screen.o [1]
screen_go_back_to_id(int)
                        0x0800bd49    0x28  Code  Gb  screen.o [1]
screen_init(int)        0x0800b991    0x1c  Code  Gb  screen.o [1]
screen_init_and_show(ScreenStruct *, bool)
                        0x0800bb61    0x3e  Code  Gb  screen.o [1]
screen_is_exist(int)    0x0800be95    0x3c  Code  Gb  screen.o [1]
screen_on_msg_default(ScreenStruct *, UIMsg *)
                        0x0800bbff    0x10  Code  Gb  screen.o [1]
screen_restore_context(ScreenStruct *)
                        0x0800bcad    0x5c  Code  Gb  screen.o [1]
screen_send_msg(ScreenStruct *, UIMsg *)
                        0x0800bbed    0x12  Code  Gb  screen.o [1]
screen_send_msg_no_para(ScreenStruct *, int, ScreenStruct *)
                        0x0800bb9f    0x26  Code  Gb  screen.o [1]
screen_send_msg_with_para(ScreenStruct *, int, int, ScreenStruct *)
                        0x0800bbc5    0x28  Code  Gb  screen.o [1]
screen_set_event_Handler(ScreenEvent, void (*)(ScreenStruct *))
                        0x0800bf11     0xa  Code  Gb  screen.o [1]
screen_set_timer_handler(TimerID, void (*)())
                        0x0800bf59     0xc  Code  Gb  screen.o [1]
screen_set_title(ScreenStruct *, char const *)
                        0x0800bf65    0x32  Code  Gb  screen.o [1]
screen_window_callback(void *, UIMsg *)
                        0x0800b85d     0x8  Code  Gb  screen.o [1]
segment_holding         0x0801882d    0x1a  Code  Lc  dlmalloc.o [3]
set_auto_power_off(bool)
                        0x0800aa15     0x6  Code  Gb  app_common.o [1]
set_battery_offset_ad   0x08005477     0x6  Code  Gb  param.o [1]
set_battery_status_empty_when_motor_run
                        0x0800510f     0x6  Code  Gb  mid_common.o [1]
set_battery_status_low_when_motor_run
                        0x08005109     0x6  Code  Gb  mid_common.o [1]
set_bubble_alarm_status
                        0x08005489     0x6  Code  Gb  param.o [1]
set_dynamic_string      0x0801126b    0x34  Code  Gb  string_data.o [1]
set_encoder_count_of_one_ml
                        0x08005471     0x6  Code  Gb  param.o [1]
set_module_output       0x080029a9     0xc  Code  Gb  common.o [1]
set_pressure_threshold  0x0800547d     0x6  Code  Gb  param.o [1]
set_sleep_allow(bool)   0x0800aab7     0x6  Code  Gb  app_common.o [1]
set_sleep_secs_before_wakeup(int)
                        0x0800a9c7     0x8  Code  Gb  app_common.o [1]
set_system_mode         0x080050cf     0x6  Code  Gb  mid_common.o [1]
set_user_infusion_para(UserSetInfusionParaType, int)
                        0x0800a8c9    0x86  Code  Gb  app_common.o [1]
slaver_version_info     0x08002eb5     0x4  Code  Gb  version.o [1]
slaver_version_info_set
                        0x08002eb9    0x1a  Code  Gb  version.o [1]
snprintf                0x0800e33d    0x44  Code  Gb  snprintf.o [3]
sprintf                 0x0801d9bd    0x34  Code  Gb  sprintf.o [3]
ssz_bcd_to_decimal      0x0800ecb7    0x22  Code  Gb  ssz_utility.o [1]
ssz_block_fdelete       0x08010a8f    0x72  Code  Gb  ssz_block_file.o [1]
ssz_block_fdirty        0x08010a69     0x4  Code  Gb  ssz_block_file.o [1]
ssz_block_fflush        0x08010a6d    0x22  Code  Gb  ssz_block_file.o [1]
ssz_block_file_check_file
                        0x08010797     0x2  Code  Gb  ssz_block_file.o [1]
ssz_block_file_init     0x08010755    0x42  Code  Gb  ssz_block_file.o [1]
ssz_block_fopen         0x08010863    0xba  Code  Gb  ssz_block_file.o [1]
ssz_block_fread_at      0x080109e1    0x88  Code  Gb  ssz_block_file.o [1]
ssz_block_fread_orginal
                        0x08010835    0x2e  Code  Gb  ssz_block_file.o [1]
ssz_block_fwrite_all_as
                        0x08010987    0x5a  Code  Gb  ssz_block_file.o [1]
ssz_block_fwrite_all_as_orginal
                        0x080107cf    0x66  Code  Gb  ssz_block_file.o [1]
ssz_block_fwrite_at     0x0801091d    0x6a  Code  Gb  ssz_block_file.o [1]
ssz_block_fwrite_orginal
                        0x08010799    0x36  Code  Gb  ssz_block_file.o [1]
ssz_clear_watchdog      0x080029fb    0x24  Code  Gb  ssz_config.o [1]
ssz_crc32               0x0801137d    0x12  Code  Gb  ssz_algorithm.o [1]
ssz_crc32_ex            0x0801138f    0x22  Code  Gb  ssz_algorithm.o [1]
ssz_decimal_to_bcd      0x0800ec99    0x1e  Code  Gb  ssz_utility.o [1]
ssz_delay_ms            0x080042eb    0x1c  Code  Gb  ssz_stm32_hal_bsp.o [1]
ssz_delay_ms_with_clear_watchdog
                        0x08004307    0x20  Code  Gb  ssz_stm32_hal_bsp.o [1]
ssz_delay_us            0x080042cb    0x20  Code  Gb  ssz_stm32_hal_bsp.o [1]
ssz_deque_at_pos        0x0801a221     0xc  Code  Gb  ssz_deque.o [1]
ssz_deque_back          0x0801a1fd    0x24  Code  Gb  ssz_deque.o [1]
ssz_deque_diff_index_simple
                        0x0801a101    0x10  Code  Lc  ssz_deque.o [1]
ssz_deque_emplace       0x0801a3e3    0x26  Code  Gb  ssz_deque.o [1]
ssz_deque_emplace_back  0x0801a3a5     0xc  Code  Gb  ssz_deque.o [1]
ssz_deque_erase         0x0801a409    0xc0  Code  Gb  ssz_deque.o [1]
ssz_deque_find          0x0801a22d    0x10  Code  Gb  ssz_deque.o [1]
ssz_deque_find_from     0x0801a23d    0x76  Code  Gb  ssz_deque.o [1]
ssz_deque_front         0x0801a1e1    0x1c  Code  Gb  ssz_deque.o [1]
ssz_deque_init          0x0801a111    0x14  Code  Gb  ssz_deque.o [1]
ssz_deque_insert_internal
                        0x0801a2b3    0xde  Code  Gb  ssz_deque.o [1]
ssz_deque_is_empty      0x0801a1bd    0x10  Code  Gb  ssz_deque.o [1]
ssz_deque_is_full       0x0801a1cd    0x14  Code  Gb  ssz_deque.o [1]
ssz_deque_next          0x0801a125    0x44  Code  Gb  ssz_deque.o [1]
ssz_deque_next_index_simple
                        0x0801a0bd    0x16  Code  Lc  ssz_deque.o [1]
ssz_deque_pop_front     0x0801a391    0x14  Code  Gb  ssz_deque.o [1]
ssz_deque_prev          0x0801a169    0x3e  Code  Gb  ssz_deque.o [1]
ssz_deque_prev_index_simple
                        0x0801a0d3    0x12  Code  Lc  ssz_deque.o [1]
ssz_deque_push_back     0x0801a3b1    0x32  Code  Gb  ssz_deque.o [1]
ssz_deque_rbegin        0x0801a1a7    0x16  Code  Gb  ssz_deque.o [1]
ssz_deque_tail_index_simple
                        0x0801a0e5    0x1c  Code  Lc  ssz_deque.o [1]
ssz_fflush              0x08002509     0xe  Code  Gb  ssz_file.o [1]
ssz_fgetc               0x080024df    0x1a  Code  Gb  ssz_file.o [1]
ssz_file_init           0x080024a1    0x16  Code  Gb  ssz_file.o [1]
ssz_fputc               0x080024f9    0x10  Code  Gb  ssz_file.o [1]
ssz_fread               0x080024cb     0xa  Code  Gb  ssz_file.o [1]
ssz_fread_at            0x080025cf    0x1c  Code  Gb  ssz_file.o [1]
ssz_fread_ex            0x080024d5     0xa  Code  Gb  ssz_file.o [1]
ssz_fseek               0x08002521    0x5e  Code  Gb  ssz_file.o [1]
ssz_fsize               0x08002597    0x1c  Code  Gb  ssz_file.o [1]
ssz_ftell               0x0800257f    0x18  Code  Gb  ssz_file.o [1]
ssz_fwrite              0x080024b7     0xa  Code  Gb  ssz_file.o [1]
ssz_fwrite_at           0x080025b3    0x1c  Code  Gb  ssz_file.o [1]
ssz_fwrite_ex           0x080024c1     0xa  Code  Gb  ssz_file.o [1]
ssz_get_char_num_to_display
                        0x0800ec77    0x22  Code  Gb  ssz_utility.o [1]
ssz_gpio_enable_clock   0x080043c7    0xa6  Code  Gb  ssz_stm32_hal_bsp.o [1]
ssz_gpio_is_valid       0x0800ef2d    0x28  Code  Gb  ssz_gpio.o [1]
ssz_gpio_set_mode       0x0800432b    0x9c  Code  Gb  ssz_stm32_hal_bsp.o [1]
ssz_ioctl               0x08002517     0xa  Code  Gb  ssz_file.o [1]
ssz_is_all_byte_as      0x0800ec59    0x1e  Code  Gb  ssz_utility.o [1]
ssz_is_leap_year        0x08002ffd    0x34  Code  Gb  ssz_time_utility.o [1]
ssz_last_error          0x08007331     0x6  Code  Gb  ssz_common.o [1]
ssz_list_at_pos         0x08018441     0xe  Code  Gb  ssz_list.o [1]
ssz_list_back           0x08018423    0x1e  Code  Gb  ssz_list.o [1]
ssz_list_begin          0x080183c9    0x14  Code  Gb  ssz_list.o [1]
ssz_list_emplace        0x0801867f    0x22  Code  Gb  ssz_list.o [1]
ssz_list_emplace_back   0x0801863d     0xc  Code  Gb  ssz_list.o [1]
ssz_list_erase          0x080186d3    0xa0  Code  Gb  ssz_list.o [1]
ssz_list_find           0x0801844f    0x10  Code  Gb  ssz_list.o [1]
ssz_list_find_from      0x0801845f    0x7e  Code  Gb  ssz_list.o [1]
ssz_list_find_unuse_node
                        0x080184dd    0x6c  Code  Lc  ssz_list.o [1]
ssz_list_init           0x0801838d    0x3c  Code  Gb  ssz_list.o [1]
ssz_list_insert         0x080186a1    0x32  Code  Gb  ssz_list.o [1]
ssz_list_insert_internal
                        0x08018549    0xf4  Code  Gb  ssz_list.o [1]
ssz_list_is_empty       0x08018413    0x10  Code  Gb  ssz_list.o [1]
ssz_list_next           0x080183dd    0x22  Code  Gb  ssz_list.o [1]
ssz_list_push_back      0x08018649    0x36  Code  Gb  ssz_list.o [1]
ssz_list_rbegin         0x080183ff    0x14  Code  Gb  ssz_list.o [1]
ssz_list_remove         0x08018779    0x46  Code  Gb  ssz_list.o [1]
ssz_locale_lang         0x0801f15d     0x6  Code  Gb  ssz_locale.o [1]
ssz_locale_set_country_region
                        0x0801f169     0x6  Code  Gb  ssz_locale.o [1]
ssz_locale_set_lang     0x0801f163     0x6  Code  Gb  ssz_locale.o [1]
ssz_max_days_in_month   0x08003031    0x1e  Code  Gb  ssz_time_utility.o [1]
ssz_mem_zero            0x0800731d     0xe  Code  Gb  ssz_common.o [1]
ssz_milliseconds_to_run_time_of_days
                        0x080032fd    0x5a  Code  Gb  ssz_time_utility.o [1]
ssz_now_time_str_for_print
                        0x080029f3     0x8  Code  Gb  ssz_config.o [1]
ssz_nvram_check_if_is_byte
                        0x08006843    0x64  Code  Gb  ssz_nvram.o [1]
ssz_nvram_erase         0x0800697d    0x6e  Code  Gb  ssz_nvram.o [1]
ssz_nvram_erase_at_one_unit
                        0x080068cb    0xb2  Code  Lc  ssz_nvram.o [1]
ssz_nvram_erase_one_unit
                        0x080068b1    0x1a  Code  Gb  ssz_nvram.o [1]
ssz_nvram_fill_with     0x0800668b    0x10  Code  Gb  ssz_nvram.o [1]
ssz_nvram_fill_with_ex  0x0800669b    0xf8  Code  Gb  ssz_nvram.o [1]
ssz_nvram_init          0x080064d1    0x92  Code  Gb  ssz_nvram.o [1]
ssz_nvram_is_erased     0x080068a7     0xa  Code  Gb  ssz_nvram.o [1]
ssz_nvram_read          0x08006793     0xe  Code  Gb  ssz_nvram.o [1]
ssz_nvram_read_ex       0x080067a1    0xa2  Code  Gb  ssz_nvram.o [1]
ssz_nvram_write         0x0800667d     0xe  Code  Gb  ssz_nvram.o [1]
ssz_nvram_write_ex      0x08006563   0x11a  Code  Gb  ssz_nvram.o [1]
ssz_on_check_fail       0x08002a1f     0xa  Code  Gb  ssz_config.o [1]
ssz_precision_tick_time_elapsed_ex
                        0x0800e441    0x3a  Code  Gb  ssz_precision_tick_time.o [1]
ssz_precision_tick_time_elapsed_us_ex
                        0x0800e3fb    0x46  Code  Gb  ssz_precision_tick_time.o [1]
ssz_precision_tick_time_now
                        0x0800e3e9    0x12  Code  Gb  ssz_precision_tick_time.o [1]
ssz_queue_emplace       0x0801a0ad     0x8  Code  Gb  ssz_queue.o [1]
ssz_queue_front         0x0801a09d     0x8  Code  Gb  ssz_queue.o [1]
ssz_queue_init          0x0801a085     0x8  Code  Gb  ssz_queue.o [1]
ssz_queue_is_empty      0x0801a08d     0x8  Code  Gb  ssz_queue.o [1]
ssz_queue_is_full       0x0801a095     0x8  Code  Gb  ssz_queue.o [1]
ssz_queue_pop           0x0801a0a5     0x8  Code  Gb  ssz_queue.o [1]
ssz_queue_push          0x0801a0b5     0x8  Code  Gb  ssz_queue.o [1]
ssz_record_address      0x08010b3d    0x48  Code  Gb  ssz_record.o [1]
ssz_record_at           0x08010deb    0x3e  Code  Gb  ssz_record.o [1]
ssz_record_at_address   0x08010dc3    0x28  Code  Lc  ssz_record.o [1]
ssz_record_clear        0x08010fdb    0xfc  Code  Gb  ssz_record.o [1]
ssz_record_erase        0x080110d7    0x6a  Code  Gb  ssz_record.o [1]
ssz_record_head_address
                        0x08010b01    0x3c  Code  Gb  ssz_record.o [1]
ssz_record_init_from_nvram
                        0x08010cdb    0x14  Code  Lc  ssz_record.o [1]
ssz_record_init_from_nvram_by_head
                        0x08010b85    0xe0  Code  Lc  ssz_record.o [1]
ssz_record_init_from_nvram_by_record
                        0x08010c65    0x76  Code  Lc  ssz_record.o [1]
ssz_record_load         0x08010da5    0x1a  Code  Gb  ssz_record.o [1]
ssz_record_push         0x08010ecf   0x10c  Code  Gb  ssz_record.o [1]
ssz_record_size         0x08010dbf     0x4  Code  Gb  ssz_record.o [1]
ssz_record_struct_init  0x08010cef    0xb6  Code  Gb  ssz_record.o [1]
ssz_record_top          0x08010e29    0x18  Code  Gb  ssz_record.o [1]
ssz_record_update_head  0x08010e41    0x8e  Code  Lc  ssz_record.o [1]
ssz_safe_queue_front    0x0801dadd    0x20  Code  Gb  ssz_safe_queue.o [1]
ssz_safe_queue_init     0x0801daa1    0x10  Code  Gb  ssz_safe_queue.o [1]
ssz_safe_queue_is_empty
                        0x0801dab1    0x14  Code  Gb  ssz_safe_queue.o [1]
ssz_safe_queue_pop      0x0801dafd    0x20  Code  Gb  ssz_safe_queue.o [1]
ssz_safe_queue_push     0x0801db1d    0x40  Code  Gb  ssz_safe_queue.o [1]
ssz_safe_queue_size     0x0801dac5    0x18  Code  Gb  ssz_safe_queue.o [1]
ssz_seconds_to_time     0x08003163     0xa  Code  Gb  ssz_time_utility.o [1]
ssz_seconds_to_time_ex  0x0800316d    0xe4  Code  Gb  ssz_time_utility.o [1]
ssz_set_last_error      0x0800732b     0x6  Code  Gb  ssz_common.o [1]
ssz_sim_i2c_master_file_ctl
                        0x0800ebff    0x26  Code  Lc  ssz_sim_i2c.o [1]
ssz_sim_i2c_master_file_read
                        0x0800ebab    0x2a  Code  Lc  ssz_sim_i2c.o [1]
ssz_sim_i2c_master_file_write
                        0x0800ebd5    0x2a  Code  Lc  ssz_sim_i2c.o [1]
ssz_sim_i2c_master_force_slaver_release
                        0x0800eb5b    0x50  Code  Gb  ssz_sim_i2c.o [1]
ssz_sim_i2c_master_init
                        0x0800ec25    0x30  Code  Gb  ssz_sim_i2c.o [1]
ssz_sim_i2c_master_is_slaver_busy
                        0x0800eb39    0x22  Code  Gb  ssz_sim_i2c.o [1]
ssz_sim_i2c_master_read
                        0x0800ea6d    0x66  Code  Gb  ssz_sim_i2c.o [1]
ssz_sim_i2c_master_write
                        0x0800ead3    0x66  Code  Gb  ssz_sim_i2c.o [1]
ssz_sim_i2c_read_ack    0x0800e951    0x4c  Code  Gb  ssz_sim_i2c.o [1]
ssz_sim_i2c_read_byte   0x0800e99d    0x62  Code  Gb  ssz_sim_i2c.o [1]
ssz_sim_i2c_send_ack    0x0800e8bd    0x4a  Code  Gb  ssz_sim_i2c.o [1]
ssz_sim_i2c_send_nack   0x0800e907    0x4a  Code  Gb  ssz_sim_i2c.o [1]
ssz_sim_i2c_start       0x0800e81d    0x50  Code  Gb  ssz_sim_i2c.o [1]
ssz_sim_i2c_stop        0x0800e86d    0x50  Code  Gb  ssz_sim_i2c.o [1]
ssz_sim_i2c_write_byte  0x0800e9ff    0x6e  Code  Gb  ssz_sim_i2c.o [1]
ssz_sleep               0x08004327     0x4  Code  Gb  ssz_stm32_hal_bsp.o [1]
ssz_spi_file_ctl        0x08011321    0x40  Code  Lc  ssz_spi.o [1]
ssz_spi_file_read       0x080112cd    0x2a  Code  Lc  ssz_spi.o [1]
ssz_spi_file_write      0x080112f7    0x2a  Code  Lc  ssz_spi.o [1]
ssz_spi_init            0x08011361    0x18  Code  Gb  ssz_spi.o [1]
ssz_spi_read            0x0800448d    0x1a  Code  Gb  ssz_stm32_hal_bsp.o [1]
ssz_spi_wait_write_finish
                        0x080044c1     0x2  Code  Gb  ssz_stm32_hal_bsp.o [1]
ssz_spi_write           0x080044a7    0x1a  Code  Gb  ssz_stm32_hal_bsp.o [1]
ssz_stop_watch_child_start
                        0x0800e195    0x66  Code  Gb  ssz_stop_watch.o [1]
ssz_stop_watch_child_stop
                        0x0800e1fb    0x2e  Code  Gb  ssz_stop_watch.o [1]
ssz_stop_watch_init     0x0800e169     0x6  Code  Gb  ssz_stop_watch.o [1]
ssz_stop_watch_print    0x0800e233    0x94  Code  Gb  ssz_stop_watch.o [1]
ssz_stop_watch_start    0x0800e16f    0x26  Code  Gb  ssz_stop_watch.o [1]
ssz_stop_watch_stop     0x0800e229     0xa  Code  Gb  ssz_stop_watch.o [1]
ssz_str_find_not_number
                        0x08005d5f    0x20  Code  Gb  ssz_str_utility.o [1]
ssz_str_find_number     0x08005d3f    0x20  Code  Gb  ssz_str_utility.o [1]
ssz_str_hex_char_to_int
                        0x08005ec5    0x42  Code  Gb  ssz_str_utility.o [1]
ssz_str_hex_to_int      0x08005f07    0x44  Code  Gb  ssz_str_utility.o [1]
ssz_str_line_num        0x08005ead    0x18  Code  Gb  ssz_str_utility.o [1]
ssz_str_print_only_one_line
                        0x08005f4b    0x24  Code  Gb  ssz_str_utility.o [1]
ssz_str_split           0x08005dbf    0x5c  Code  Gb  ssz_str_utility.o [1]
ssz_str_to_date         0x08003251    0x78  Code  Gb  ssz_time_utility.o [1]
ssz_str_to_numbers      0x08005d7f    0x40  Code  Gb  ssz_str_utility.o [1]
ssz_str_to_time         0x080032c9    0x34  Code  Gb  ssz_time_utility.o [1]
ssz_str_utf8_to_one_utf16
                        0x08005e1b    0x92  Code  Gb  ssz_str_utility.o [1]
ssz_system_clock        0x080042c5     0x6  Code  Gb  ssz_stm32_hal_bsp.o [1]
ssz_tick_time_diff      0x08002fd3    0x28  Code  Gb  ssz_tick_time.o [1]
ssz_tick_time_elapsed   0x08002f89     0xc  Code  Gb  ssz_tick_time.o [1]
ssz_tick_time_elapsed_ex
                        0x08002f95    0x10  Code  Gb  ssz_tick_time.o [1]
ssz_tick_time_increase  0x08002ef1    0x30  Code  Gb  ssz_tick_time.o [1]
ssz_tick_time_is_after_or_eq
                        0x08002fb9    0x1a  Code  Gb  ssz_tick_time.o [1]
ssz_tick_time_next      0x08002f37     0xe  Code  Gb  ssz_tick_time.o [1]
ssz_tick_time_next_ex   0x08002f21    0x16  Code  Gb  ssz_tick_time.o [1]
ssz_tick_time_now       0x08002f45     0x6  Code  Gb  ssz_tick_time.o [1]
ssz_tick_time_now_str   0x08002f4b    0x2a  Code  Gb  ssz_tick_time.o [1]
ssz_tick_time_str       0x08002f75    0x14  Code  Gb  ssz_tick_time.o [1]
ssz_time_now            0x080029d1     0x8  Code  Gb  ssz_config.o [1]
ssz_time_now_seconds    0x080029d9    0x1a  Code  Gb  ssz_config.o [1]
ssz_time_now_str        0x08003529    0x60  Code  Gb  ssz_time.o [1]
ssz_time_str            0x08003589    0x42  Code  Gb  ssz_time.o [1]
ssz_time_to_seconds     0x080030c7     0xa  Code  Gb  ssz_time_utility.o [1]
ssz_time_to_seconds_ex  0x080030d1    0x92  Code  Gb  ssz_time_utility.o [1]
ssz_timer_create        0x0801b6bb    0x2e  Code  Gb  ssz_timer.o [1]
ssz_timer_delete        0x0801b6e9     0x8  Code  Gb  ssz_timer.o [1]
ssz_timer_handle_all    0x0801b70f    0x54  Code  Gb  ssz_timer.o [1]
ssz_timer_init          0x0801b69d    0x1e  Code  Gb  ssz_timer.o [1]
ssz_timer_start_oneshot_after
                        0x0801b6f1    0x1e  Code  Gb  ssz_timer.o [1]
ssz_tmp_buff_alloc      0x0800735f    0x48  Code  Gb  ssz_common.o [1]
ssz_tmp_buff_check_size
                        0x08007337    0x28  Code  Gb  ssz_common.o [1]
ssz_tmp_buff_free       0x080073a7    0x26  Code  Gb  ssz_common.o [1]
ssz_uart_write          0x080044c3    0x22  Code  Gb  ssz_stm32_hal_bsp.o [1]
ssz_vector_at_index     0x0801bf79    0x20  Code  Gb  ssz_vector.o [1]
ssz_vector_init         0x0801bf63    0x10  Code  Gb  ssz_vector.o [1]
ssz_vector_insert_internal
                        0x0801bf99    0x80  Code  Gb  ssz_vector.o [1]
ssz_vector_push_back    0x0801c019    0x32  Code  Gb  ssz_vector.o [1]
ssz_vector_size         0x0801bf73     0x6  Code  Gb  ssz_vector.o [1]
ssz_week_day            0x0800304f    0x78  Code  Gb  ssz_time_utility.o [1]
start_system_scan()     0x0800ad85    0x18  Code  Gb  do_before_main_loop.o [1]
statusbar()             0x08015589    0x2c  Code  Gb  ui_common.o [1]
statusbar_create        0x08015561    0x28  Code  Gb  ui_common.o [1]
statusbar_init()        0x080155b5    0x88  Code  Gb  ui_common.o [1]
stop_system_scan()      0x0800ad9d    0x18  Code  Gb  do_before_main_loop.o [1]
stop_watch_child_start  0x0800293b    0x18  Code  Gb  stop_watch.o [1]
stop_watch_child_stop   0x08002953    0x14  Code  Gb  stop_watch.o [1]
stop_watch_disable      0x08002993     0x8  Code  Gb  stop_watch.o [1]
stop_watch_enable       0x0800298b     0x8  Code  Gb  stop_watch.o [1]
stop_watch_init         0x08002915    0x14  Code  Gb  stop_watch.o [1]
stop_watch_print        0x08002979    0x12  Code  Gb  stop_watch.o [1]
stop_watch_start        0x08002929    0x12  Code  Gb  stop_watch.o [1]
stop_watch_stop         0x08002967    0x12  Code  Gb  stop_watch.o [1]
strchr                  0x080112ad          Code  Gb  strchr.o [5]
strchr(char const *, int)
                        0x0800d181     0x8  Code  Gb  app_cmd.o [1]
string_data_select_by_lang
                        0x08011205    0x2a  Code  Gb  string_data.o [1]
strlen                  0x080026f1          Code  Gb  strlen.o [5]
strncat                 0x0801a57f    0x28  Code  Gb  strncat.o [3]
strncmp                 0x0800d1bf    0x28  Code  Gb  strncmp.o [3]
sys_alloc               0x08018c19   0x386  Code  Lc  dlmalloc.o [3]
sys_master_mcu_power_disable
                        0x08004679    0x10  Code  Gb  sys_power.o [1]
sys_master_mcu_power_enable
                        0x08004669    0x10  Code  Gb  sys_power.o [1]
sys_power_ADC_disable   0x0800462f    0x10  Code  Gb  sys_power.o [1]
sys_power_ADC_enable    0x0800461f    0x10  Code  Gb  sys_power.o [1]
sys_power_battery_level
                        0x08004715    0x16  Code  Gb  sys_power.o [1]
sys_power_battery_voltage
                        0x08004689    0x1c  Code  Gb  sys_power.o [1]
sys_power_disable       0x08004659    0x10  Code  Gb  sys_power.o [1]
sys_power_enable        0x08004649    0x10  Code  Gb  sys_power.o [1]
sys_power_get_battery_level
                        0x080046b9    0x5c  Code  Gb  sys_power.o [1]
sys_power_get_sys_pwr_adc_average_value
                        0x0800463f     0xa  Code  Gb  sys_power.o [1]
sys_power_is_adapter_insert
                        0x080045d9    0x18  Code  Gb  sys_power.o [1]
sys_power_wake_up_slaver
                        0x0800460d    0x12  Code  Gb  sys_power.o [1]
sys_power_wake_up_slaver_pin_high
                        0x080045f1     0xe  Code  Gb  sys_power.o [1]
sys_power_wake_up_slaver_pin_low
                        0x080045ff     0xe  Code  Gb  sys_power.o [1]
system_mode             0x080050c9     0x6  Code  Gb  mid_common.o [1]
three_valve_motor_init  0x08009867    0x1c  Code  Gb  three_valve_motor.o [1]
three_valve_motor_is_running
                        0x08009835    0x12  Code  Gb  three_valve_motor.o [1]
three_valve_motor_monitor_start
                        0x08009687    0x2e  Code  Gb  three_valve_motor.o [1]
three_valve_motor_monitor_stop
                        0x080096b5     0xa  Code  Gb  three_valve_motor.o [1]
three_valve_motor_move_to_position
                        0x080090e5   0x42e  Code  Gb  three_valve_motor.o [1]
three_valve_motor_move_to_position_a
                        0x0800951d     0xa  Code  Gb  three_valve_motor.o [1]
three_valve_motor_move_to_position_b
                        0x08009527     0xa  Code  Gb  three_valve_motor.o [1]
three_valve_motor_on_direction_wrong
                        0x08009857    0x10  Code  Gb  three_valve_motor.o [1]
three_valve_motor_on_finish_target
                        0x0800984d     0xa  Code  Gb  three_valve_motor.o [1]
three_valve_motor_run_check
                        0x08009531   0x156  Code  Gb  three_valve_motor.o [1]
three_valve_motor_start
                        0x080096bf    0xce  Code  Gb  three_valve_motor.o [1]
three_valve_motor_stop  0x0800978d    0xa8  Code  Gb  three_valve_motor.o [1]
timer_handle_all        0x08002889     0xa  Code  Gb  timer.o [1]
timer_handle_all_of_group
                        0x08002893    0x7a  Code  Gb  timer.o [1]
timer_is_actived        0x08002847    0x16  Code  Gb  timer.o [1]
timer_set_handler       0x08002795     0xc  Code  Gb  timer.o [1]
timer_set_handler_and_group
                        0x080027a1    0x16  Code  Gb  timer.o [1]
timer_start_oneshot_after
                        0x080027b7    0x2c  Code  Gb  timer.o [1]
timer_start_oneshot_at  0x0800280b    0x22  Code  Gb  timer.o [1]
timer_start_periodic_every
                        0x080027e3    0x28  Code  Gb  timer.o [1]
timer_stop              0x0800282d    0x1a  Code  Gb  timer.o [1]
timer_stop_all          0x0800285d    0x2c  Code  Gb  timer.o [1]
tmalloc_large           0x08018fad   0x390  Code  Lc  dlmalloc.o [3]
tmalloc_small           0x0801933d   0x210  Code  Lc  dlmalloc.o [3]
ui_backup_and_set_default_draw_context
                        0x08006b1b    0x28  Code  Gb  ui_draw.o [1]
ui_canvas_rect          0x08006a01    0x12  Code  Gb  ui_draw.o [1]
ui_clear                0x08006dad    0x34  Code  Gb  ui_draw.o [1]
ui_clear_rect           0x08006d59    0x54  Code  Gb  ui_draw.o [1]
ui_common_color_to_dev_color
                        0x080115bb    0x18  Code  Gb  ssz_ui_config.o [1]
ui_config               0x080115b3     0x8  Code  Gb  ssz_ui_config.o [1]
ui_create_widgets(UIView *, short const *, int)
                        0x08015385   0x1dc  Code  Gb  ui_common.o [1]
ui_disp_char_at_inter   0x0801aae7    0x8c  Code  Gb  ui_disp_text.o [1]
ui_disp_text_at         0x0801ac53    0x22  Code  Gb  ui_disp_text.o [1]
ui_disp_text_at_internal
                        0x0801ab73    0xe0  Code  Gb  ui_disp_text.o [1]
ui_disp_text_in_rect    0x0801ac75   0x126  Code  Gb  ui_disp_text.o [1]
ui_draw_hline_at        0x08006b6b    0x7c  Code  Gb  ui_draw.o [1]
ui_draw_img_at          0x0801c04d    0xd8  Code  Gb  ui_draw_img.o [1]
ui_draw_rect_at         0x08006be7   0x138  Code  Gb  ui_draw.o [1]
ui_draw_rect_ex         0x08006d1f    0x2c  Code  Gb  ui_draw.o [1]
ui_draw_to_dev          0x080115d3     0x8  Code  Gb  ssz_ui_config.o [1]
ui_fill_rect_at         0x08006d4b     0xe  Code  Gb  ui_draw.o [1]
ui_flush_line_cache     0x08006fff    0x2a  Code  Gb  ui_draw.o [1]
ui_get_char_xsize       0x0801aa4b    0x2e  Code  Gb  ui_disp_text.o [1]
ui_get_text_xsize       0x0801aadd     0xa  Code  Gb  ui_disp_text.o [1]
ui_get_text_xsize_internal
                        0x0801aa79    0x64  Code  Gb  ui_disp_text.o [1]
ui_limit_rect_of_canvas
                        0x08006af5    0x12  Code  Gb  ui_draw.o [1]
ui_rect_intersect       0x080113b5    0x78  Code  Gb  ui_utility.o [1]
ui_rect_intersect_to    0x0801142d    0x90  Code  Gb  ui_utility.o [1]
ui_rect_is_include      0x0801157b    0x38  Code  Gb  ui_utility.o [1]
ui_rect_is_intersect_ex
                        0x08011519    0x62  Code  Gb  ui_utility.o [1]
ui_rect_merge           0x080114bd    0x42  Code  Gb  ui_utility.o [1]
ui_rect_move            0x080114ff    0x1a  Code  Gb  ui_utility.o [1]
ui_restore_draw_context
                        0x08006b43    0x14  Code  Gb  ui_draw.o [1]
ui_set_bk_color         0x080069f7     0xa  Code  Gb  ui_draw.o [1]
ui_set_canvas_rect      0x08006a13    0x26  Code  Gb  ui_draw.o [1]
ui_set_canvas_rect_ex   0x08006a39    0x58  Code  Gb  ui_draw.o [1]
ui_set_default_draw_context
                        0x08006b07    0x14  Code  Gb  ui_draw.o [1]
ui_set_draw_mode        0x080069ed     0xa  Code  Gb  ui_draw.o [1]
ui_set_fill_color       0x08006b61     0xa  Code  Gb  ui_draw.o [1]
ui_set_font             0x0801aa2d     0xa  Code  Gb  ui_disp_text.o [1]
ui_set_limit_rect_of_canvas_ex
                        0x08006a91    0x64  Code  Gb  ui_draw.o [1]
ui_set_pen_color        0x08006b57     0xa  Code  Gb  ui_draw.o [1]
ui_set_pixel_at_line_cache
                        0x08006e4f    0xbe  Code  Gb  ui_draw.o [1]
ui_set_pixels_at_line_cache
                        0x08006f0d    0xf2  Code  Gb  ui_draw.o [1]
ui_set_text_color       0x0801aa37     0xa  Code  Gb  ui_disp_text.o [1]
ui_set_text_mode        0x0801aa41     0xa  Code  Gb  ui_disp_text.o [1]
ui_start_line_cache     0x08006de1    0x6e  Code  Gb  ui_draw.o [1]
ui_view_compare_timer(void const *, void const *, unsigned int)
                        0x0801335d     0xe  Code  Lc  ui_view.o [1]
ui_view_config          0x0801b653    0x46  Code  Gb  ssz_ui_view_config.o [1]
ui_view_create(UIViewTypeID, int, UIView *, int, int, int, int, unsigned int)
                        0x080130dd    0x96  Code  Gb  ui_view.o [1]
ui_view_create_desktop_if_not()
                        0x08013221    0x60  Code  Gb  ui_view.o [1]
ui_view_create_timer(UIView *)
                        0x08013343     0xe  Code  Gb  ui_view.o [1]
ui_view_delete_associated_timer(UIView *)
                        0x0801336b     0xe  Code  Gb  ui_view.o [1]
ui_view_delete_timer(int)
                        0x08013351     0xc  Code  Gb  ui_view.o [1]
ui_view_desktop()       0x08013281     0x6  Code  Gb  ui_view.o [1]
ui_view_desktop_callback(void *, UIMsg *)
                        0x0801321f     0x2  Code  Gb  ui_view.o [1]
ui_view_destroy(UIView *)
                        0x08013173    0x62  Code  Gb  ui_view.o [1]
ui_view_draw_all_dirty  0x080133f1    0x1a  Code  Gb  ui_view.o [1]
ui_view_draw_self_and_descendant(UIView *)
                        0x0801338d    0x64  Code  Lc  ui_view.o [1]
ui_view_focused()       0x08013287     0x6  Code  Gb  ui_view.o [1]
ui_view_free(UIView *)  0x080130ad    0x30  Code  Gb  ui_view.o [1]
ui_view_handle_all_timer()
                        0x0801340b     0xa  Code  Gb  ui_view.o [1]
ui_view_init            0x08013419    0x18  Code  Gb  ui_view.o [1]
ui_view_init_obj        0x0801b561    0xf2  Code  Gb  ssz_ui_view_config.o [1]
ui_view_invalidate_views(UIView *, UIView *, Rect &)
                        0x08012991    0x56  Code  Gb  ui_view.o [1]
ui_view_malloc(UIViewTypeID, int *)
                        0x08013051    0x5c  Code  Lc  ui_view.o [1]
ui_view_on_timer_expire(int, void *)
                        0x08013335     0xe  Code  Lc  ui_view.o [1]
ui_view_output_view_self_info(UIView *, int)
                        0x080132a3    0x8c  Code  Gb  ui_view.o [1]
ui_view_print_space(int)
                        0x0801328d    0x16  Code  Gb  ui_view.o [1]
ui_view_regist(UIViewTypeID, int, void *)
                        0x080131d5    0x40  Code  Gb  ui_view.o [1]
ui_view_send_msg(UIView *, UIMsg &)
                        0x08013215     0xa  Code  Gb  ui_view.o [1]
ui_view_start_oneshot_after(int, int)
                        0x08013379     0xe  Code  Gb  ui_view.o [1]
ui_view_start_scan_timer
                        0x0801347d    0x10  Code  Gb  ui_view.o [1]
ui_view_stop_scan_timer
                        0x0801348d     0xa  Code  Gb  ui_view.o [1]
unlock_keypad()         0x0800aa9d    0x14  Code  Gb  app_common.o [1]
uwTick                  0x20007b70     0x4  Data  Gb  stm32l1xx_hal.o [1]
version_build_time      0x08002edb     0x4  Code  Gb  version.o [1]
version_info            0x08002ed3     0x4  Code  Gb  version.o [1]
version_software_name   0x08002ed7     0x4  Code  Gb  version.o [1]
vibrator_motor_init     0x0800a87d    0x16  Code  Gb  vibrater_motor.o [1]
vibrator_motor_start    0x0800a893    0x16  Code  Gb  vibrater_motor.o [1]
vibrator_motor_stop     0x0800a8a9    0x16  Code  Gb  vibrater_motor.o [1]
voice_device_close      0x080168c3    0x16  Code  Gb  voice.o [1]
voice_device_open       0x080168ad    0x16  Code  Gb  voice.o [1]
voice_get_channel       0x080168dd    0x20  Code  Gb  voice.o [1]
voice_play_beep_once    0x080169a9     0xc  Code  Gb  voice.o [1]
voice_play_cycle        0x08016937    0x3c  Code  Gb  voice.o [1]
voice_play_high_cycle   0x080169c1     0xc  Code  Gb  voice.o [1]
voice_play_low_cycle    0x080169b5     0xc  Code  Gb  voice.o [1]
voice_play_once         0x080168fd    0x3a  Code  Gb  voice.o [1]
voice_stop_play_beep_channel
                        0x0801698b     0xa  Code  Gb  voice.o [1]
voice_stop_play_current_channel
                        0x08016973    0x18  Code  Gb  voice.o [1]
voice_stop_play_high_channel
                        0x0801699f     0xa  Code  Gb  voice.o [1]
voice_stop_play_low_channel
                        0x08016995     0xa  Code  Gb  voice.o [1]
watchdog_clear          0x0800ab85    0x14  Code  Gb  app_common.o [1]
watchdog_is_enable      0x0800ab7f     0x6  Code  Gb  app_common.o [1]
watchdog_set_expired_time
                        0x0800ab99    0x1c  Code  Gb  app_common.o [1]
watchdog_start          0x0800ab4f    0x16  Code  Gb  app_common.o [1]
watchdog_stop           0x0800ab65    0x1a  Code  Gb  app_common.o [1]


[1] = D:\chemo_pump\Src\MasterMcu\build\IAR\Release\Obj
[2] = command line
[3] = dl7M_tln.a
[4] = m7M_tl.a
[5] = rt7M_tl.a

  141 737 bytes of readonly  code memory
   51 939 bytes of readonly  data memory
   31 762 bytes of readwrite data memory

Errors: none
Warnings: none
